	.text
	.globl	__popcountdi2
	.section	.text._ZN3hwy6N_SSE26detail22MaybePartitionTwoValueINS0_4SimdIlLm2ELi0EEENS1_12SharedTraitsINS1_10TraitsLaneINS1_14OrderAscendingIlEEEEEElEEbT_T0_PT1_mDTcl4ZerocvSB__EEESF_RSF_SE_.isra.0,"ax",@progbits
	.p2align 4
	.type	_ZN3hwy6N_SSE26detail22MaybePartitionTwoValueINS0_4SimdIlLm2ELi0EEENS1_12SharedTraitsINS1_10TraitsLaneINS1_14OrderAscendingIlEEEEEElEEbT_T0_PT1_mDTcl4ZerocvSB__EEESF_RSF_SE_.isra.0, @function
_ZN3hwy6N_SSE26detail22MaybePartitionTwoValueINS0_4SimdIlLm2ELi0EEENS1_12SharedTraitsINS1_10TraitsLaneINS1_14OrderAscendingIlEEEEEElEEbT_T0_PT1_mDTcl4ZerocvSB__EEESF_RSF_SE_.isra.0:
.LFB18780:
	.cfi_startproc
	pushq	%rbp
	.cfi_def_cfa_offset 16
	.cfi_offset 6, -16
	movq	%rsp, %rbp
	.cfi_def_cfa_register 6
	pushq	%r15
	pushq	%r14
	.cfi_offset 15, -24
	.cfi_offset 14, -32
	movq	%rdi, %r14
	pushq	%r13
	.cfi_offset 13, -40
	movq	%rcx, %r13
	pushq	%r12
	.cfi_offset 12, -48
	movq	%rsi, %r12
	pushq	%rbx
	subq	$88, %rsp
	.cfi_offset 3, -56
	movq	%rdx, -120(%rbp)
	movaps	%xmm0, -80(%rbp)
	movaps	%xmm1, -64(%rbp)
	movaps	%xmm0, -96(%rbp)
	movaps	%xmm1, -112(%rbp)
	cmpq	$1, %rsi
	jbe	.L24
	movl	$2, %r15d
	xorl	%ebx, %ebx
	jmp	.L9
	.p2align 4,,10
	.p2align 3
.L3:
	movdqa	-80(%rbp), %xmm5
	movmskpd	%xmm1, %edi
	movups	%xmm5, (%r14,%rbx,8)
	call	__popcountdi2@PLT
	cltq
	addq	%rax, %rbx
	leaq	2(%r15), %rax
	cmpq	%r12, %rax
	ja	.L56
	movq	%rax, %r15
.L9:
	movdqu	-16(%r14,%r15,8), %xmm0
	leaq	-2(%r15), %rdx
	leaq	0(,%rbx,8), %rax
	pcmpeqd	-96(%rbp), %xmm0
	pshufd	$177, %xmm0, %xmm1
	pand	%xmm0, %xmm1
	movdqu	-16(%r14,%r15,8), %xmm0
	pcmpeqd	-112(%rbp), %xmm0
	pshufd	$177, %xmm0, %xmm2
	pand	%xmm2, %xmm0
	movdqa	%xmm1, %xmm2
	por	%xmm0, %xmm2
	movmskpd	%xmm2, %ecx
	cmpl	$3, %ecx
	je	.L3
	pcmpeqd	%xmm2, %xmm2
	movq	-120(%rbp), %rsi
	leaq	2(%rbx), %rdi
	pxor	%xmm2, %xmm0
	pandn	%xmm0, %xmm1
	movmskpd	%xmm1, %ecx
	rep bsfl	%ecx, %ecx
	movslq	%ecx, %rcx
	addq	%rdx, %rcx
	movq	(%r14,%rcx,8), %xmm0
	punpcklqdq	%xmm0, %xmm0
	movaps	%xmm0, (%rsi)
	cmpq	%rdx, %rdi
	ja	.L4
	movq	%rdx, %rcx
	addq	%r14, %rax
	subq	%rbx, %rcx
	leaq	-2(%rcx), %rsi
	movq	%rsi, %rcx
	andq	$-2, %rcx
	addq	%rbx, %rcx
	leaq	16(%r14,%rcx,8), %rcx
	.p2align 4,,10
	.p2align 3
.L5:
	movdqa	-64(%rbp), %xmm4
	addq	$16, %rax
	movups	%xmm4, -16(%rax)
	cmpq	%rcx, %rax
	jne	.L5
	andq	$-2, %rsi
	leaq	(%rsi,%rdi), %rbx
.L4:
	subq	%rbx, %rdx
	movdqa	.LC1(%rip), %xmm2
	movdqa	.LC0(%rip), %xmm1
	leaq	0(,%rbx,8), %rcx
	movq	%rdx, %xmm0
	punpcklqdq	%xmm0, %xmm0
	movdqa	%xmm0, %xmm3
	psubq	%xmm0, %xmm1
	pcmpeqd	%xmm2, %xmm3
	pcmpgtd	%xmm2, %xmm0
	pand	%xmm3, %xmm1
	por	%xmm1, %xmm0
	pshufd	$245, %xmm0, %xmm0
	movq	%xmm0, %rax
	testq	%rax, %rax
	je	.L6
	movdqa	-64(%rbp), %xmm3
	movq	%xmm3, (%r14,%rbx,8)
.L6:
	movhlps	%xmm0, %xmm3
	movq	%xmm3, %rax
	testq	%rax, %rax
	jne	.L57
.L17:
	addq	$88, %rsp
	xorl	%eax, %eax
	popq	%rbx
	popq	%r12
	popq	%r13
	popq	%r14
	popq	%r15
	popq	%rbp
	.cfi_remember_state
	.cfi_def_cfa 7, 8
	ret
	.p2align 4,,10
	.p2align 3
.L57:
	.cfi_restore_state
	movdqa	-64(%rbp), %xmm3
	movhps	%xmm3, 8(%r14,%rcx)
	jmp	.L17
	.p2align 4,,10
	.p2align 3
.L56:
	movq	%r12, %rcx
	leaq	0(,%r15,8), %rsi
	leaq	0(,%rbx,8), %r9
	subq	%r15, %rcx
.L2:
	testq	%rcx, %rcx
	je	.L13
	leaq	0(,%rcx,8), %rdx
	addq	%r14, %rsi
	movq	%r13, %rdi
	movq	%r9, -112(%rbp)
	movq	%rcx, -96(%rbp)
	call	memcpy@PLT
	movq	-96(%rbp), %rcx
	movq	-112(%rbp), %r9
.L13:
	movdqa	.LC1(%rip), %xmm3
	movq	%rcx, %xmm2
	movdqa	-80(%rbp), %xmm5
	movdqa	.LC0(%rip), %xmm1
	punpcklqdq	%xmm2, %xmm2
	movdqa	%xmm3, %xmm4
	pcmpeqd	%xmm2, %xmm4
	movdqa	%xmm1, %xmm0
	psubq	%xmm2, %xmm0
	pcmpgtd	%xmm3, %xmm2
	pand	%xmm4, %xmm0
	por	%xmm2, %xmm0
	movdqa	0(%r13), %xmm2
	pshufd	$245, %xmm0, %xmm0
	pcmpeqd	%xmm2, %xmm5
	pcmpeqd	-64(%rbp), %xmm2
	pshufd	$177, %xmm5, %xmm4
	pand	%xmm0, %xmm4
	pand	%xmm5, %xmm4
	pshufd	$177, %xmm2, %xmm5
	pand	%xmm5, %xmm2
	pcmpeqd	%xmm5, %xmm5
	movdqa	%xmm5, %xmm6
	pxor	%xmm0, %xmm6
	por	%xmm6, %xmm2
	por	%xmm4, %xmm2
	movmskpd	%xmm2, %eax
	cmpl	$3, %eax
	jne	.L58
	movq	%xmm0, %rax
	testq	%rax, %rax
	je	.L18
	movdqa	-80(%rbp), %xmm5
	movq	%xmm5, (%r14,%r9)
.L18:
	movhlps	%xmm0, %xmm6
	movq	%xmm6, %rax
	testq	%rax, %rax
	jne	.L59
.L19:
	movmskpd	%xmm4, %edi
	call	__popcountdi2@PLT
	movdqa	.LC0(%rip), %xmm1
	movdqa	.LC1(%rip), %xmm3
	movslq	%eax, %rdx
	addq	%rbx, %rdx
	leaq	2(%rdx), %rax
	cmpq	%rax, %r12
	jb	.L20
	.p2align 4,,10
	.p2align 3
.L21:
	movdqa	-64(%rbp), %xmm7
	movq	%rax, %rdx
	movups	%xmm7, -16(%r14,%rax,8)
	addq	$2, %rax
	cmpq	%rax, %r12
	jnb	.L21
.L20:
	subq	%rdx, %r12
	movdqa	%xmm3, %xmm2
	leaq	0(,%rdx,8), %rcx
	movq	%r12, %xmm0
	punpcklqdq	%xmm0, %xmm0
	pcmpeqd	%xmm0, %xmm2
	psubq	%xmm0, %xmm1
	pcmpgtd	%xmm3, %xmm0
	pand	%xmm2, %xmm1
	por	%xmm1, %xmm0
	pshufd	$245, %xmm0, %xmm0
	movq	%xmm0, %rax
	testq	%rax, %rax
	je	.L22
	movdqa	-64(%rbp), %xmm3
	movq	%xmm3, (%r14,%rdx,8)
.L22:
	movhlps	%xmm0, %xmm3
	movq	%xmm3, %rax
	testq	%rax, %rax
	je	.L23
	movdqa	-64(%rbp), %xmm3
	movhps	%xmm3, 8(%r14,%rcx)
.L23:
	addq	$88, %rsp
	movl	$1, %eax
	popq	%rbx
	popq	%r12
	popq	%r13
	popq	%r14
	popq	%r15
	popq	%rbp
	.cfi_remember_state
	.cfi_def_cfa 7, 8
	ret
	.p2align 4,,10
	.p2align 3
.L59:
	.cfi_restore_state
	movdqa	-80(%rbp), %xmm6
	movhps	%xmm6, 8(%r14,%r9)
	jmp	.L19
.L24:
	movq	%rsi, %rcx
	xorl	%r9d, %r9d
	xorl	%esi, %esi
	xorl	%ebx, %ebx
	xorl	%r15d, %r15d
	jmp	.L2
.L58:
	pxor	%xmm5, %xmm2
	leaq	2(%rbx), %rsi
	movmskpd	%xmm2, %eax
	rep bsfl	%eax, %eax
	cltq
	addq	%r15, %rax
	movq	(%r14,%rax,8), %xmm0
	movq	-120(%rbp), %rax
	punpcklqdq	%xmm0, %xmm0
	movaps	%xmm0, (%rax)
	cmpq	%r15, %rsi
	ja	.L14
	leaq	-2(%r15), %rcx
	leaq	(%r14,%rbx,8), %rax
	subq	%rbx, %rcx
	movq	%rcx, %rdx
	andq	$-2, %rdx
	addq	%rbx, %rdx
	leaq	16(%r14,%rdx,8), %rdx
	.p2align 4,,10
	.p2align 3
.L15:
	movdqa	-64(%rbp), %xmm4
	addq	$16, %rax
	movups	%xmm4, -16(%rax)
	cmpq	%rax, %rdx
	jne	.L15
	andq	$-2, %rcx
	leaq	(%rcx,%rsi), %rbx
	leaq	0(,%rbx,8), %r9
.L14:
	subq	%rbx, %r15
	movdqa	%xmm3, %xmm2
	movq	%r15, %xmm0
	punpcklqdq	%xmm0, %xmm0
	pcmpeqd	%xmm0, %xmm2
	psubq	%xmm0, %xmm1
	pcmpgtd	%xmm3, %xmm0
	pand	%xmm2, %xmm1
	por	%xmm1, %xmm0
	pshufd	$245, %xmm0, %xmm0
	movq	%xmm0, %rax
	testq	%rax, %rax
	je	.L16
	movdqa	-64(%rbp), %xmm3
	movq	%xmm3, (%r14,%r9)
.L16:
	movhlps	%xmm0, %xmm3
	movq	%xmm3, %rax
	testq	%rax, %rax
	je	.L17
	movdqa	-64(%rbp), %xmm3
	movhps	%xmm3, 8(%r14,%r9)
	jmp	.L17
	.cfi_endproc
.LFE18780:
	.size	_ZN3hwy6N_SSE26detail22MaybePartitionTwoValueINS0_4SimdIlLm2ELi0EEENS1_12SharedTraitsINS1_10TraitsLaneINS1_14OrderAscendingIlEEEEEElEEbT_T0_PT1_mDTcl4ZerocvSB__EEESF_RSF_SE_.isra.0, .-_ZN3hwy6N_SSE26detail22MaybePartitionTwoValueINS0_4SimdIlLm2ELi0EEENS1_12SharedTraitsINS1_10TraitsLaneINS1_14OrderAscendingIlEEEEEElEEbT_T0_PT1_mDTcl4ZerocvSB__EEESF_RSF_SE_.isra.0
	.section	.text._ZN3hwy6N_SSE26detail8SiftDownINS1_12SharedTraitsINS1_10TraitsLaneINS1_14OrderAscendingIlEEEEEElEEvT_PT0_mm.isra.0,"ax",@progbits
	.p2align 4
	.type	_ZN3hwy6N_SSE26detail8SiftDownINS1_12SharedTraitsINS1_10TraitsLaneINS1_14OrderAscendingIlEEEEEElEEvT_PT0_mm.isra.0, @function
_ZN3hwy6N_SSE26detail8SiftDownINS1_12SharedTraitsINS1_10TraitsLaneINS1_14OrderAscendingIlEEEEEElEEvT_PT0_mm.isra.0:
.LFB18781:
	.cfi_startproc
	cmpq	%rdx, %rsi
	jbe	.L60
	leaq	(%rdx,%rdx), %rcx
	leaq	1(%rdx), %r8
	leaq	1(%rcx), %rax
	addq	$2, %rcx
	cmpq	%rax, %rsi
	jbe	.L60
	movq	(%rdi,%rdx,8), %r11
	movq	%r11, %xmm3
	punpcklqdq	%xmm3, %xmm3
	movdqa	%xmm3, %xmm6
	jmp	.L63
	.p2align 4,,10
	.p2align 3
.L69:
	movq	%rdx, %rax
.L64:
	cmpq	%rcx, %rsi
	jbe	.L65
	salq	$4, %r8
	movq	(%rdi,%r8), %xmm0
	punpcklqdq	%xmm0, %xmm0
	movdqa	%xmm0, %xmm2
	psubq	%xmm0, %xmm1
	pcmpeqd	%xmm4, %xmm2
	pcmpgtd	%xmm4, %xmm0
	pand	%xmm2, %xmm1
	por	%xmm0, %xmm1
	pshufd	$245, %xmm1, %xmm1
	movmskpd	%xmm1, %r8d
	andl	$1, %r8d
	jne	.L66
.L65:
	cmpq	%rdx, %rax
	je	.L60
	leaq	(%rdi,%rax,8), %rdx
	movq	(%rdx), %rcx
	movq	%rcx, (%r10)
	movq	%r11, (%rdx)
	cmpq	%rax, %rsi
	jbe	.L72
	movq	%rax, %rdx
.L67:
	leaq	(%rdx,%rdx), %rcx
	leaq	1(%rdx), %r8
	leaq	1(%rcx), %rax
	addq	$2, %rcx
	cmpq	%rsi, %rax
	jnb	.L60
.L63:
	movq	(%rdi,%rax,8), %xmm2
	movdqa	%xmm3, %xmm0
	leaq	(%rdi,%rdx,8), %r10
	movdqa	%xmm6, %xmm4
	movdqa	%xmm3, %xmm1
	punpcklqdq	%xmm2, %xmm2
	movdqa	%xmm2, %xmm5
	psubq	%xmm2, %xmm0
	pcmpeqd	%xmm3, %xmm5
	pand	%xmm5, %xmm0
	movdqa	%xmm2, %xmm5
	pcmpgtd	%xmm3, %xmm5
	por	%xmm5, %xmm0
	pshufd	$245, %xmm0, %xmm0
	movmskpd	%xmm0, %r9d
	andl	$1, %r9d
	je	.L69
	movdqa	%xmm2, %xmm1
	movdqa	%xmm2, %xmm4
	jmp	.L64
	.p2align 4,,10
	.p2align 3
.L66:
	cmpq	%rcx, %rdx
	je	.L60
	leaq	(%rdi,%rcx,8), %rax
	movq	(%rax), %rdx
	movq	%rdx, (%r10)
	movq	%rcx, %rdx
	movq	%r11, (%rax)
	jmp	.L67
	.p2align 4,,10
	.p2align 3
.L60:
	ret
	.p2align 4,,10
	.p2align 3
.L72:
	ret
	.cfi_endproc
.LFE18781:
	.size	_ZN3hwy6N_SSE26detail8SiftDownINS1_12SharedTraitsINS1_10TraitsLaneINS1_14OrderAscendingIlEEEEEElEEvT_PT0_mm.isra.0, .-_ZN3hwy6N_SSE26detail8SiftDownINS1_12SharedTraitsINS1_10TraitsLaneINS1_14OrderAscendingIlEEEEEElEEvT_PT0_mm.isra.0
	.section	.text._ZN3hwy6N_SSE26detail14SortingNetworkINS1_12SharedTraitsINS1_10TraitsLaneINS1_14OrderAscendingIlEEEEEElEEvT_PT0_m.isra.0,"ax",@progbits
	.p2align 4
	.type	_ZN3hwy6N_SSE26detail14SortingNetworkINS1_12SharedTraitsINS1_10TraitsLaneINS1_14OrderAscendingIlEEEEEElEEvT_PT0_m.isra.0, @function
_ZN3hwy6N_SSE26detail14SortingNetworkINS1_12SharedTraitsINS1_10TraitsLaneINS1_14OrderAscendingIlEEEEEElEEvT_PT0_m.isra.0:
.LFB18782:
	.cfi_startproc
	pushq	%rbp
	.cfi_def_cfa_offset 16
	.cfi_offset 6, -16
	movq	%rsi, %rax
	salq	$3, %rax
	movq	%rsp, %rbp
	.cfi_def_cfa_register 6
	pushq	%r15
	.cfi_offset 15, -24
	leaq	(%rdi,%rax), %r15
	pushq	%r14
	.cfi_offset 14, -32
	leaq	(%r15,%rax), %r14
	pushq	%r13
	.cfi_offset 13, -40
	leaq	(%r14,%rax), %r13
	pushq	%r12
	.cfi_offset 12, -48
	leaq	0(%r13,%rax), %r12
	pushq	%rbx
	.cfi_offset 3, -56
	leaq	(%r12,%rax), %rbx
	leaq	(%rbx,%rax), %r11
	leaq	(%r11,%rax), %r10
	subq	$224, %rsp
	leaq	(%r10,%rax), %r9
	leaq	(%r9,%rax), %r8
	movq	%rdi, -232(%rbp)
	movq	%rsi, -192(%rbp)
	movdqu	(%rdi), %xmm9
	leaq	(%r8,%rax), %rdi
	movdqu	(%r15), %xmm6
	leaq	(%rdi,%rax), %rsi
	movdqu	0(%r13), %xmm5
	movdqu	(%r14), %xmm13
	leaq	(%rsi,%rax), %rcx
	movdqa	%xmm9, %xmm14
	movdqu	(%rbx), %xmm3
	movdqu	(%r12), %xmm12
	leaq	(%rcx,%rax), %rdx
	psubq	%xmm6, %xmm14
	movdqu	(%r10), %xmm2
	movdqu	(%r11), %xmm11
	movdqu	(%rdx), %xmm0
	movdqu	(%rsi), %xmm4
	movq	%rdx, -216(%rbp)
	addq	%rax, %rdx
	movdqu	(%rdx), %xmm15
	movdqu	(%r8), %xmm8
	movq	%rdx, -224(%rbp)
	addq	%rdx, %rax
	movaps	%xmm0, -96(%rbp)
	movdqa	%xmm6, %xmm0
	movdqu	(%rdi), %xmm7
	movdqu	(%rcx), %xmm1
	pcmpeqd	%xmm9, %xmm0
	movaps	%xmm15, -112(%rbp)
	movdqu	(%r9), %xmm10
	pand	%xmm14, %xmm0
	movdqa	%xmm6, %xmm14
	pcmpgtd	%xmm9, %xmm14
	por	%xmm14, %xmm0
	pshufd	$245, %xmm0, %xmm0
	movdqa	%xmm0, %xmm14
	pandn	%xmm6, %xmm14
	pand	%xmm0, %xmm6
	movdqa	%xmm14, %xmm15
	movdqa	%xmm9, %xmm14
	pand	%xmm0, %xmm14
	por	%xmm15, %xmm14
	movdqa	%xmm0, %xmm15
	movdqa	%xmm5, %xmm0
	pcmpeqd	%xmm13, %xmm0
	pandn	%xmm9, %xmm15
	movdqa	%xmm13, %xmm9
	psubq	%xmm5, %xmm9
	por	%xmm15, %xmm6
	pand	%xmm9, %xmm0
	movdqa	%xmm5, %xmm9
	pcmpgtd	%xmm13, %xmm9
	por	%xmm9, %xmm0
	pshufd	$245, %xmm0, %xmm0
	movdqa	%xmm0, %xmm9
	pandn	%xmm5, %xmm9
	pand	%xmm0, %xmm5
	movdqa	%xmm9, %xmm15
	movdqa	%xmm13, %xmm9
	pand	%xmm0, %xmm9
	por	%xmm15, %xmm9
	movdqa	%xmm0, %xmm15
	movdqa	%xmm3, %xmm0
	pcmpeqd	%xmm12, %xmm0
	pandn	%xmm13, %xmm15
	movdqa	%xmm12, %xmm13
	psubq	%xmm3, %xmm13
	por	%xmm15, %xmm5
	pand	%xmm13, %xmm0
	movdqa	%xmm3, %xmm13
	pcmpgtd	%xmm12, %xmm13
	por	%xmm13, %xmm0
	pshufd	$245, %xmm0, %xmm0
	movdqa	%xmm0, %xmm13
	pandn	%xmm3, %xmm13
	pand	%xmm0, %xmm3
	movdqa	%xmm13, %xmm15
	movdqa	%xmm12, %xmm13
	pand	%xmm0, %xmm13
	por	%xmm15, %xmm13
	movdqa	%xmm0, %xmm15
	movdqa	%xmm2, %xmm0
	pandn	%xmm12, %xmm15
	pcmpeqd	%xmm11, %xmm0
	por	%xmm15, %xmm3
	movaps	%xmm3, -64(%rbp)
	movdqa	%xmm11, %xmm3
	psubq	%xmm2, %xmm3
	pand	%xmm3, %xmm0
	movdqa	%xmm2, %xmm3
	pcmpgtd	%xmm11, %xmm3
	por	%xmm3, %xmm0
	movdqa	%xmm11, %xmm3
	pshufd	$245, %xmm0, %xmm0
	movdqa	%xmm0, %xmm12
	pand	%xmm0, %xmm3
	pandn	%xmm2, %xmm12
	pand	%xmm0, %xmm2
	por	%xmm12, %xmm3
	movdqa	%xmm0, %xmm12
	movdqa	%xmm8, %xmm0
	pcmpeqd	%xmm10, %xmm0
	pandn	%xmm11, %xmm12
	movdqa	%xmm10, %xmm11
	psubq	%xmm8, %xmm11
	por	%xmm12, %xmm2
	movdqa	%xmm10, %xmm12
	pand	%xmm11, %xmm0
	movdqa	%xmm8, %xmm11
	pcmpgtd	%xmm10, %xmm11
	por	%xmm11, %xmm0
	pshufd	$245, %xmm0, %xmm0
	movdqa	%xmm0, %xmm11
	pand	%xmm0, %xmm12
	pandn	%xmm8, %xmm11
	pand	%xmm0, %xmm8
	por	%xmm11, %xmm12
	movdqa	%xmm0, %xmm11
	movdqa	%xmm4, %xmm0
	pandn	%xmm10, %xmm11
	pcmpeqd	%xmm7, %xmm0
	por	%xmm11, %xmm8
	movaps	%xmm8, -80(%rbp)
	movdqa	%xmm7, %xmm8
	movdqa	-96(%rbp), %xmm10
	movdqa	-112(%rbp), %xmm15
	psubq	%xmm4, %xmm8
	pand	%xmm8, %xmm0
	movdqa	%xmm4, %xmm8
	pcmpgtd	%xmm7, %xmm8
	por	%xmm8, %xmm0
	movdqa	%xmm7, %xmm8
	pshufd	$245, %xmm0, %xmm0
	movdqa	%xmm0, %xmm11
	pand	%xmm0, %xmm8
	pandn	%xmm4, %xmm11
	pand	%xmm0, %xmm4
	por	%xmm11, %xmm8
	movdqa	%xmm0, %xmm11
	movdqa	%xmm10, %xmm0
	pcmpeqd	%xmm1, %xmm0
	pandn	%xmm7, %xmm11
	movdqa	%xmm1, %xmm7
	psubq	%xmm10, %xmm7
	por	%xmm11, %xmm4
	movdqa	%xmm1, %xmm11
	pand	%xmm7, %xmm0
	movdqa	%xmm10, %xmm7
	pcmpgtd	%xmm1, %xmm7
	por	%xmm7, %xmm0
	pshufd	$245, %xmm0, %xmm0
	movdqa	%xmm0, %xmm7
	pand	%xmm0, %xmm11
	pandn	%xmm10, %xmm7
	por	%xmm7, %xmm11
	movdqa	%xmm0, %xmm7
	pand	%xmm10, %xmm0
	movdqu	(%rax), %xmm10
	pandn	%xmm1, %xmm7
	movdqa	%xmm15, %xmm1
	por	%xmm7, %xmm0
	movdqu	(%rax), %xmm7
	movaps	%xmm0, -96(%rbp)
	psubq	%xmm7, %xmm1
	movdqu	(%rax), %xmm7
	movdqa	%xmm1, %xmm0
	movdqu	(%rax), %xmm1
	pcmpgtd	%xmm15, %xmm7
	pcmpeqd	%xmm15, %xmm1
	pand	%xmm0, %xmm1
	movdqa	%xmm15, %xmm0
	por	%xmm7, %xmm1
	pshufd	$245, %xmm1, %xmm1
	movdqa	%xmm1, %xmm7
	pand	%xmm1, %xmm0
	pandn	%xmm10, %xmm7
	por	%xmm7, %xmm0
	movdqa	%xmm1, %xmm7
	pand	%xmm10, %xmm1
	pandn	%xmm15, %xmm7
	movdqa	%xmm14, %xmm10
	movdqa	%xmm14, %xmm15
	por	%xmm7, %xmm1
	movdqa	%xmm9, %xmm7
	psubq	%xmm9, %xmm10
	pcmpeqd	%xmm14, %xmm7
	pand	%xmm10, %xmm7
	movdqa	%xmm9, %xmm10
	pcmpgtd	%xmm14, %xmm10
	por	%xmm10, %xmm7
	pshufd	$245, %xmm7, %xmm7
	movdqa	%xmm7, %xmm10
	pand	%xmm7, %xmm15
	pandn	%xmm9, %xmm10
	pand	%xmm7, %xmm9
	por	%xmm15, %xmm10
	movdqa	%xmm7, %xmm15
	movdqa	%xmm5, %xmm7
	pcmpeqd	%xmm6, %xmm7
	pandn	%xmm14, %xmm15
	movdqa	%xmm6, %xmm14
	por	%xmm9, %xmm15
	movdqa	%xmm6, %xmm9
	psubq	%xmm5, %xmm9
	pand	%xmm9, %xmm7
	movdqa	%xmm5, %xmm9
	pcmpgtd	%xmm6, %xmm9
	por	%xmm9, %xmm7
	pshufd	$245, %xmm7, %xmm7
	movdqa	%xmm7, %xmm9
	pand	%xmm7, %xmm14
	pandn	%xmm5, %xmm9
	pand	%xmm7, %xmm5
	por	%xmm14, %xmm9
	movdqa	%xmm7, %xmm14
	pandn	%xmm6, %xmm14
	movdqa	%xmm3, %xmm6
	por	%xmm14, %xmm5
	pcmpeqd	%xmm13, %xmm6
	movdqa	-64(%rbp), %xmm14
	movaps	%xmm5, -112(%rbp)
	movdqa	%xmm13, %xmm5
	psubq	%xmm3, %xmm5
	pand	%xmm5, %xmm6
	movdqa	%xmm3, %xmm5
	pcmpgtd	%xmm13, %xmm5
	por	%xmm5, %xmm6
	movdqa	%xmm13, %xmm5
	pshufd	$245, %xmm6, %xmm6
	movdqa	%xmm6, %xmm7
	pand	%xmm6, %xmm5
	pandn	%xmm3, %xmm7
	pand	%xmm6, %xmm3
	por	%xmm7, %xmm5
	movdqa	%xmm6, %xmm7
	movdqa	%xmm14, %xmm6
	pandn	%xmm13, %xmm7
	pcmpeqd	%xmm2, %xmm6
	por	%xmm7, %xmm3
	movdqa	%xmm14, %xmm7
	psubq	%xmm2, %xmm7
	pand	%xmm7, %xmm6
	movdqa	%xmm2, %xmm7
	pcmpgtd	%xmm14, %xmm7
	por	%xmm7, %xmm6
	movdqa	%xmm14, %xmm7
	pshufd	$245, %xmm6, %xmm6
	movdqa	%xmm6, %xmm13
	pand	%xmm6, %xmm7
	pandn	%xmm2, %xmm13
	pand	%xmm6, %xmm2
	por	%xmm13, %xmm7
	movdqa	%xmm6, %xmm13
	movdqa	%xmm8, %xmm6
	pandn	%xmm14, %xmm13
	pcmpeqd	%xmm12, %xmm6
	movdqa	%xmm12, %xmm14
	por	%xmm13, %xmm2
	movdqa	%xmm12, %xmm13
	psubq	%xmm8, %xmm13
	pand	%xmm13, %xmm6
	movdqa	%xmm8, %xmm13
	pcmpgtd	%xmm12, %xmm13
	por	%xmm13, %xmm6
	pshufd	$245, %xmm6, %xmm6
	movdqa	%xmm6, %xmm13
	pand	%xmm6, %xmm14
	pandn	%xmm8, %xmm13
	pand	%xmm6, %xmm8
	por	%xmm14, %xmm13
	movdqa	%xmm6, %xmm14
	movdqa	%xmm8, %xmm6
	pandn	%xmm12, %xmm14
	por	%xmm14, %xmm6
	movdqa	-80(%rbp), %xmm14
	movaps	%xmm6, -128(%rbp)
	movdqa	%xmm14, %xmm6
	movdqa	%xmm14, %xmm8
	movdqa	%xmm14, %xmm12
	pcmpeqd	%xmm4, %xmm6
	psubq	%xmm4, %xmm8
	pand	%xmm8, %xmm6
	movdqa	%xmm4, %xmm8
	pcmpgtd	%xmm14, %xmm8
	por	%xmm8, %xmm6
	pshufd	$245, %xmm6, %xmm6
	movdqa	%xmm6, %xmm8
	pand	%xmm6, %xmm12
	pandn	%xmm4, %xmm8
	pand	%xmm6, %xmm4
	por	%xmm12, %xmm8
	movdqa	%xmm6, %xmm12
	movdqa	%xmm0, %xmm6
	pandn	%xmm14, %xmm12
	pcmpeqd	%xmm11, %xmm6
	movdqa	-96(%rbp), %xmm14
	por	%xmm12, %xmm4
	movaps	%xmm4, -80(%rbp)
	movdqa	%xmm11, %xmm4
	psubq	%xmm0, %xmm4
	pand	%xmm4, %xmm6
	movdqa	%xmm0, %xmm4
	pcmpgtd	%xmm11, %xmm4
	por	%xmm4, %xmm6
	movdqa	%xmm11, %xmm4
	pshufd	$245, %xmm6, %xmm6
	movdqa	%xmm6, %xmm12
	pand	%xmm6, %xmm4
	pandn	%xmm0, %xmm12
	pand	%xmm6, %xmm0
	por	%xmm12, %xmm4
	movdqa	%xmm6, %xmm12
	movdqa	%xmm14, %xmm6
	pandn	%xmm11, %xmm12
	movdqa	%xmm14, %xmm11
	psubq	%xmm1, %xmm6
	pcmpeqd	%xmm1, %xmm11
	por	%xmm12, %xmm0
	pand	%xmm6, %xmm11
	movdqa	%xmm1, %xmm6
	pcmpgtd	%xmm14, %xmm6
	por	%xmm6, %xmm11
	movdqa	%xmm14, %xmm6
	pshufd	$245, %xmm11, %xmm11
	movdqa	%xmm11, %xmm12
	pand	%xmm11, %xmm6
	pandn	%xmm1, %xmm12
	pand	%xmm11, %xmm1
	por	%xmm12, %xmm6
	movdqa	%xmm11, %xmm12
	movdqa	%xmm5, %xmm11
	pandn	%xmm14, %xmm12
	pcmpeqd	%xmm10, %xmm11
	movdqa	%xmm10, %xmm14
	por	%xmm12, %xmm1
	movdqa	%xmm10, %xmm12
	psubq	%xmm5, %xmm12
	pand	%xmm12, %xmm11
	movdqa	%xmm5, %xmm12
	pcmpgtd	%xmm10, %xmm12
	por	%xmm12, %xmm11
	pshufd	$245, %xmm11, %xmm11
	movdqa	%xmm11, %xmm12
	pand	%xmm11, %xmm14
	pandn	%xmm5, %xmm12
	pand	%xmm11, %xmm5
	por	%xmm14, %xmm12
	movdqa	%xmm11, %xmm14
	movdqa	%xmm9, %xmm11
	pandn	%xmm10, %xmm14
	movdqa	%xmm9, %xmm10
	por	%xmm5, %xmm14
	movdqa	%xmm7, %xmm5
	psubq	%xmm7, %xmm10
	pcmpeqd	%xmm9, %xmm5
	pand	%xmm10, %xmm5
	movdqa	%xmm7, %xmm10
	pcmpgtd	%xmm9, %xmm10
	por	%xmm10, %xmm5
	pshufd	$245, %xmm5, %xmm5
	movdqa	%xmm5, %xmm10
	pand	%xmm5, %xmm11
	pandn	%xmm7, %xmm10
	pand	%xmm5, %xmm7
	por	%xmm11, %xmm10
	movdqa	%xmm5, %xmm11
	movdqa	%xmm3, %xmm5
	pandn	%xmm9, %xmm11
	pcmpeqd	%xmm15, %xmm5
	movdqa	%xmm15, %xmm9
	por	%xmm11, %xmm7
	movaps	%xmm7, -96(%rbp)
	movdqa	%xmm15, %xmm7
	psubq	%xmm3, %xmm7
	pand	%xmm7, %xmm5
	movdqa	%xmm3, %xmm7
	pcmpgtd	%xmm15, %xmm7
	por	%xmm7, %xmm5
	pshufd	$245, %xmm5, %xmm5
	movdqa	%xmm5, %xmm7
	pand	%xmm5, %xmm9
	pandn	%xmm3, %xmm7
	pand	%xmm5, %xmm3
	por	%xmm9, %xmm7
	movdqa	%xmm5, %xmm9
	pandn	%xmm15, %xmm9
	movdqa	-112(%rbp), %xmm15
	por	%xmm9, %xmm3
	movaps	%xmm3, -144(%rbp)
	movdqa	%xmm15, %xmm3
	movdqa	%xmm15, %xmm5
	movdqa	%xmm15, %xmm9
	pcmpeqd	%xmm2, %xmm3
	psubq	%xmm2, %xmm5
	pand	%xmm5, %xmm3
	movdqa	%xmm2, %xmm5
	pcmpgtd	%xmm15, %xmm5
	por	%xmm5, %xmm3
	pshufd	$245, %xmm3, %xmm3
	movdqa	%xmm3, %xmm5
	pand	%xmm3, %xmm9
	pandn	%xmm2, %xmm5
	pand	%xmm3, %xmm2
	por	%xmm9, %xmm5
	movdqa	%xmm3, %xmm9
	movdqa	%xmm13, %xmm3
	pandn	%xmm15, %xmm9
	psubq	%xmm4, %xmm3
	movdqa	-128(%rbp), %xmm15
	por	%xmm9, %xmm2
	movaps	%xmm2, -64(%rbp)
	movdqa	%xmm4, %xmm2
	pcmpeqd	%xmm13, %xmm2
	pand	%xmm3, %xmm2
	movdqa	%xmm4, %xmm3
	pcmpgtd	%xmm13, %xmm3
	por	%xmm3, %xmm2
	movdqa	%xmm13, %xmm3
	pshufd	$245, %xmm2, %xmm2
	movdqa	%xmm2, %xmm9
	pand	%xmm2, %xmm3
	pandn	%xmm4, %xmm9
	pand	%xmm2, %xmm4
	por	%xmm9, %xmm3
	movdqa	%xmm2, %xmm9
	movdqa	%xmm6, %xmm2
	pandn	%xmm13, %xmm9
	pcmpeqd	%xmm8, %xmm2
	por	%xmm9, %xmm4
	movdqa	%xmm8, %xmm9
	psubq	%xmm6, %xmm9
	pand	%xmm9, %xmm2
	movdqa	%xmm6, %xmm9
	pcmpgtd	%xmm8, %xmm9
	por	%xmm9, %xmm2
	movdqa	%xmm8, %xmm9
	pshufd	$245, %xmm2, %xmm2
	movdqa	%xmm2, %xmm11
	pand	%xmm2, %xmm9
	pandn	%xmm6, %xmm11
	pand	%xmm2, %xmm6
	por	%xmm11, %xmm9
	movdqa	%xmm2, %xmm11
	movdqa	%xmm15, %xmm2
	pandn	%xmm8, %xmm11
	movdqa	%xmm15, %xmm8
	psubq	%xmm0, %xmm2
	pcmpeqd	%xmm0, %xmm8
	por	%xmm11, %xmm6
	pand	%xmm2, %xmm8
	movdqa	%xmm0, %xmm2
	pcmpgtd	%xmm15, %xmm2
	por	%xmm2, %xmm8
	movdqa	%xmm15, %xmm2
	pshufd	$245, %xmm8, %xmm8
	movdqa	%xmm8, %xmm11
	pand	%xmm8, %xmm2
	pandn	%xmm0, %xmm11
	pand	%xmm8, %xmm0
	por	%xmm11, %xmm2
	movdqa	%xmm8, %xmm11
	pandn	%xmm15, %xmm11
	movdqa	-80(%rbp), %xmm15
	por	%xmm11, %xmm0
	movdqa	%xmm15, %xmm11
	movdqa	%xmm15, %xmm8
	pcmpeqd	%xmm1, %xmm11
	psubq	%xmm1, %xmm8
	pand	%xmm8, %xmm11
	movdqa	%xmm1, %xmm8
	pcmpgtd	%xmm15, %xmm8
	por	%xmm8, %xmm11
	pshufd	$245, %xmm11, %xmm11
	movdqa	%xmm11, %xmm8
	pandn	%xmm1, %xmm8
	pand	%xmm11, %xmm1
	movdqa	%xmm8, %xmm13
	movdqa	%xmm15, %xmm8
	pand	%xmm11, %xmm8
	por	%xmm13, %xmm8
	movdqa	%xmm11, %xmm13
	movdqa	%xmm3, %xmm11
	pcmpeqd	%xmm12, %xmm11
	pandn	%xmm15, %xmm13
	movdqa	%xmm12, %xmm15
	psubq	%xmm3, %xmm15
	por	%xmm13, %xmm1
	pand	%xmm15, %xmm11
	movdqa	%xmm3, %xmm15
	pcmpgtd	%xmm12, %xmm15
	por	%xmm15, %xmm11
	pshufd	$245, %xmm11, %xmm11
	movdqa	%xmm11, %xmm15
	pandn	%xmm3, %xmm15
	pand	%xmm11, %xmm3
	movdqa	%xmm15, %xmm13
	movdqa	%xmm12, %xmm15
	pand	%xmm11, %xmm15
	por	%xmm13, %xmm15
	movaps	%xmm15, -112(%rbp)
	movdqa	%xmm11, %xmm15
	movdqa	%xmm10, %xmm11
	pandn	%xmm12, %xmm15
	psubq	%xmm9, %xmm11
	movdqa	%xmm10, %xmm12
	movdqa	%xmm15, %xmm13
	movdqa	%xmm3, %xmm15
	movdqa	%xmm9, %xmm3
	pcmpeqd	%xmm10, %xmm3
	por	%xmm13, %xmm15
	movdqa	-96(%rbp), %xmm13
	pand	%xmm11, %xmm3
	movdqa	%xmm9, %xmm11
	pcmpgtd	%xmm10, %xmm11
	por	%xmm11, %xmm3
	pshufd	$245, %xmm3, %xmm3
	movdqa	%xmm3, %xmm11
	pand	%xmm3, %xmm12
	pandn	%xmm9, %xmm11
	pand	%xmm3, %xmm9
	por	%xmm11, %xmm12
	movdqa	%xmm3, %xmm11
	movdqa	%xmm7, %xmm3
	pandn	%xmm10, %xmm11
	movdqa	%xmm2, %xmm10
	psubq	%xmm2, %xmm3
	movaps	%xmm12, -80(%rbp)
	pcmpeqd	%xmm7, %xmm10
	por	%xmm11, %xmm9
	pand	%xmm3, %xmm10
	movdqa	%xmm2, %xmm3
	pcmpgtd	%xmm7, %xmm3
	por	%xmm3, %xmm10
	movdqa	%xmm7, %xmm3
	pshufd	$245, %xmm10, %xmm10
	movdqa	%xmm10, %xmm11
	pand	%xmm10, %xmm3
	pandn	%xmm2, %xmm11
	pand	%xmm10, %xmm2
	por	%xmm11, %xmm3
	movdqa	%xmm10, %xmm11
	movdqa	%xmm8, %xmm10
	pcmpeqd	%xmm5, %xmm10
	pandn	%xmm7, %xmm11
	movdqa	%xmm5, %xmm7
	psubq	%xmm8, %xmm7
	por	%xmm11, %xmm2
	pand	%xmm7, %xmm10
	movdqa	%xmm8, %xmm7
	pcmpgtd	%xmm5, %xmm7
	por	%xmm7, %xmm10
	movdqa	%xmm5, %xmm7
	pshufd	$245, %xmm10, %xmm10
	movdqa	%xmm10, %xmm11
	pand	%xmm10, %xmm7
	pandn	%xmm8, %xmm11
	pand	%xmm10, %xmm8
	por	%xmm11, %xmm7
	movdqa	%xmm10, %xmm11
	movdqa	%xmm4, %xmm10
	pcmpeqd	%xmm14, %xmm10
	pandn	%xmm5, %xmm11
	movdqa	%xmm14, %xmm5
	psubq	%xmm4, %xmm5
	por	%xmm11, %xmm8
	pand	%xmm5, %xmm10
	movdqa	%xmm4, %xmm5
	pcmpgtd	%xmm14, %xmm5
	por	%xmm5, %xmm10
	movdqa	%xmm14, %xmm5
	pshufd	$245, %xmm10, %xmm10
	movdqa	%xmm10, %xmm11
	pand	%xmm10, %xmm5
	pandn	%xmm4, %xmm11
	pand	%xmm10, %xmm4
	por	%xmm11, %xmm5
	movdqa	%xmm10, %xmm11
	movdqa	%xmm13, %xmm10
	pandn	%xmm14, %xmm11
	psubq	%xmm6, %xmm10
	movdqa	-144(%rbp), %xmm14
	por	%xmm11, %xmm4
	movdqa	%xmm13, %xmm11
	pcmpeqd	%xmm6, %xmm11
	pand	%xmm10, %xmm11
	movdqa	%xmm6, %xmm10
	pcmpgtd	%xmm13, %xmm10
	por	%xmm10, %xmm11
	movdqa	%xmm13, %xmm10
	pshufd	$245, %xmm11, %xmm11
	movdqa	%xmm11, %xmm12
	pand	%xmm11, %xmm10
	pandn	%xmm6, %xmm12
	pand	%xmm11, %xmm6
	por	%xmm12, %xmm10
	movdqa	%xmm11, %xmm12
	movdqa	%xmm14, %xmm11
	pandn	%xmm13, %xmm12
	pcmpeqd	%xmm0, %xmm11
	por	%xmm12, %xmm6
	movdqa	%xmm14, %xmm12
	psubq	%xmm0, %xmm12
	pand	%xmm12, %xmm11
	movdqa	%xmm0, %xmm12
	pcmpgtd	%xmm14, %xmm12
	por	%xmm12, %xmm11
	movdqa	%xmm14, %xmm12
	pshufd	$245, %xmm11, %xmm11
	movdqa	%xmm11, %xmm13
	pand	%xmm11, %xmm12
	pandn	%xmm0, %xmm13
	pand	%xmm11, %xmm0
	por	%xmm13, %xmm12
	movdqa	%xmm11, %xmm13
	pandn	%xmm14, %xmm13
	movdqa	-64(%rbp), %xmm14
	por	%xmm13, %xmm0
	movdqa	%xmm14, %xmm11
	movdqa	%xmm14, %xmm13
	movaps	%xmm0, -96(%rbp)
	pcmpeqd	%xmm1, %xmm11
	psubq	%xmm1, %xmm13
	pand	%xmm13, %xmm11
	movdqa	%xmm1, %xmm13
	pcmpgtd	%xmm14, %xmm13
	por	%xmm13, %xmm11
	pshufd	$245, %xmm11, %xmm11
	movdqa	%xmm11, %xmm13
	movdqa	%xmm11, %xmm0
	pandn	-64(%rbp), %xmm0
	pandn	%xmm1, %xmm13
	pand	%xmm11, %xmm1
	pand	%xmm11, %xmm14
	por	%xmm0, %xmm1
	movdqa	%xmm10, %xmm11
	por	%xmm14, %xmm13
	movaps	%xmm1, -160(%rbp)
	movdqa	%xmm2, %xmm1
	psubq	%xmm2, %xmm11
	movdqa	%xmm7, %xmm0
	pcmpeqd	%xmm10, %xmm1
	psubq	%xmm4, %xmm0
	pand	%xmm11, %xmm1
	movdqa	%xmm2, %xmm11
	pcmpgtd	%xmm10, %xmm11
	por	%xmm11, %xmm1
	movdqa	%xmm10, %xmm11
	pshufd	$245, %xmm1, %xmm1
	movdqa	%xmm1, %xmm14
	pand	%xmm1, %xmm11
	pandn	%xmm2, %xmm14
	pand	%xmm1, %xmm2
	por	%xmm14, %xmm11
	movdqa	%xmm1, %xmm14
	movdqa	%xmm12, %xmm1
	pandn	%xmm10, %xmm14
	movdqa	%xmm9, %xmm10
	psubq	%xmm9, %xmm1
	pcmpeqd	%xmm12, %xmm10
	por	%xmm14, %xmm2
	pand	%xmm1, %xmm10
	movdqa	%xmm9, %xmm1
	pcmpgtd	%xmm12, %xmm1
	por	%xmm1, %xmm10
	movdqa	%xmm12, %xmm1
	pshufd	$245, %xmm10, %xmm10
	movdqa	%xmm10, %xmm14
	pand	%xmm10, %xmm1
	pandn	%xmm9, %xmm14
	pand	%xmm10, %xmm9
	por	%xmm14, %xmm1
	movdqa	%xmm10, %xmm14
	movdqa	%xmm4, %xmm10
	pcmpeqd	%xmm7, %xmm10
	pandn	%xmm12, %xmm14
	por	%xmm14, %xmm9
	movdqa	%xmm7, %xmm14
	pand	%xmm0, %xmm10
	movdqa	%xmm4, %xmm0
	pcmpgtd	%xmm7, %xmm0
	por	%xmm0, %xmm10
	pshufd	$245, %xmm10, %xmm10
	movdqa	%xmm10, %xmm0
	pand	%xmm10, %xmm14
	pandn	%xmm4, %xmm0
	pand	%xmm10, %xmm4
	por	%xmm0, %xmm14
	movdqa	%xmm10, %xmm0
	pandn	%xmm7, %xmm0
	movdqa	%xmm13, %xmm7
	por	%xmm0, %xmm4
	psubq	%xmm8, %xmm7
	movaps	%xmm4, -64(%rbp)
	movdqa	%xmm8, %xmm4
	pcmpeqd	%xmm13, %xmm4
	pand	%xmm7, %xmm4
	movdqa	%xmm8, %xmm7
	pcmpgtd	%xmm13, %xmm7
	por	%xmm7, %xmm4
	movdqa	%xmm13, %xmm7
	pshufd	$245, %xmm4, %xmm4
	movdqa	%xmm4, %xmm10
	pand	%xmm4, %xmm7
	pandn	%xmm8, %xmm10
	pand	%xmm4, %xmm8
	por	%xmm10, %xmm7
	movdqa	%xmm4, %xmm10
	pandn	%xmm13, %xmm10
	movdqa	-96(%rbp), %xmm13
	por	%xmm10, %xmm8
	movdqa	%xmm6, %xmm10
	movdqa	%xmm13, %xmm4
	psubq	%xmm13, %xmm10
	pcmpeqd	%xmm6, %xmm4
	pand	%xmm10, %xmm4
	movdqa	%xmm13, %xmm10
	pcmpgtd	%xmm6, %xmm10
	por	%xmm10, %xmm4
	movdqa	%xmm6, %xmm10
	pshufd	$245, %xmm4, %xmm4
	movdqa	%xmm4, %xmm0
	pand	%xmm4, %xmm10
	pandn	%xmm13, %xmm0
	por	%xmm0, %xmm10
	movdqa	%xmm4, %xmm0
	pandn	%xmm6, %xmm0
	movdqa	%xmm15, %xmm6
	movdqa	%xmm0, %xmm12
	pcmpeqd	%xmm5, %xmm6
	movdqa	%xmm13, %xmm0
	movdqa	-80(%rbp), %xmm13
	pand	%xmm4, %xmm0
	movdqa	%xmm5, %xmm4
	psubq	%xmm15, %xmm4
	por	%xmm12, %xmm0
	pand	%xmm4, %xmm6
	movdqa	%xmm15, %xmm4
	pcmpgtd	%xmm5, %xmm4
	por	%xmm4, %xmm6
	movdqa	%xmm5, %xmm4
	pshufd	$245, %xmm6, %xmm6
	movdqa	%xmm6, %xmm12
	pand	%xmm6, %xmm4
	pandn	%xmm15, %xmm12
	pand	%xmm6, %xmm15
	por	%xmm12, %xmm4
	movdqa	%xmm6, %xmm12
	movdqa	%xmm13, %xmm6
	pandn	%xmm5, %xmm12
	movdqa	%xmm13, %xmm5
	psubq	%xmm3, %xmm6
	pcmpeqd	%xmm3, %xmm5
	por	%xmm12, %xmm15
	pand	%xmm6, %xmm5
	movdqa	%xmm3, %xmm6
	pcmpgtd	%xmm13, %xmm6
	por	%xmm6, %xmm5
	movdqa	%xmm13, %xmm6
	pshufd	$245, %xmm5, %xmm5
	movdqa	%xmm5, %xmm12
	pand	%xmm5, %xmm6
	pandn	%xmm3, %xmm12
	pand	%xmm5, %xmm3
	por	%xmm12, %xmm6
	movdqa	%xmm5, %xmm12
	movdqa	%xmm4, %xmm5
	pandn	%xmm13, %xmm12
	pcmpeqd	%xmm6, %xmm5
	movdqa	%xmm6, %xmm13
	por	%xmm12, %xmm3
	movdqa	%xmm6, %xmm12
	psubq	%xmm4, %xmm12
	pand	%xmm12, %xmm5
	movdqa	%xmm4, %xmm12
	pcmpgtd	%xmm6, %xmm12
	por	%xmm12, %xmm5
	pshufd	$245, %xmm5, %xmm5
	movdqa	%xmm5, %xmm12
	pand	%xmm5, %xmm13
	pandn	%xmm4, %xmm12
	pand	%xmm5, %xmm4
	por	%xmm12, %xmm13
	movdqa	%xmm5, %xmm12
	movdqa	%xmm7, %xmm5
	pandn	%xmm6, %xmm12
	movdqa	%xmm10, %xmm6
	psubq	%xmm10, %xmm5
	movaps	%xmm13, -128(%rbp)
	pcmpeqd	%xmm7, %xmm6
	por	%xmm12, %xmm4
	pand	%xmm5, %xmm6
	movdqa	%xmm10, %xmm5
	pcmpgtd	%xmm7, %xmm5
	por	%xmm5, %xmm6
	movdqa	%xmm7, %xmm5
	pshufd	$245, %xmm6, %xmm6
	movdqa	%xmm6, %xmm12
	pand	%xmm6, %xmm5
	pandn	%xmm10, %xmm12
	pand	%xmm6, %xmm10
	por	%xmm12, %xmm5
	movdqa	%xmm6, %xmm12
	movdqa	%xmm3, %xmm6
	pandn	%xmm7, %xmm12
	movdqa	%xmm15, %xmm7
	psubq	%xmm15, %xmm6
	pcmpeqd	%xmm3, %xmm7
	por	%xmm12, %xmm10
	pand	%xmm6, %xmm7
	movdqa	%xmm15, %xmm6
	pcmpgtd	%xmm3, %xmm6
	por	%xmm6, %xmm7
	movdqa	%xmm3, %xmm6
	pshufd	$245, %xmm7, %xmm7
	movdqa	%xmm7, %xmm12
	pand	%xmm7, %xmm6
	pandn	%xmm15, %xmm12
	pand	%xmm7, %xmm15
	por	%xmm12, %xmm6
	movdqa	%xmm7, %xmm12
	movdqa	%xmm0, %xmm7
	pcmpeqd	%xmm8, %xmm7
	pandn	%xmm3, %xmm12
	movdqa	%xmm8, %xmm3
	psubq	%xmm0, %xmm3
	por	%xmm12, %xmm15
	pand	%xmm3, %xmm7
	movdqa	%xmm0, %xmm3
	pcmpgtd	%xmm8, %xmm3
	por	%xmm3, %xmm7
	movdqa	%xmm8, %xmm3
	pshufd	$245, %xmm7, %xmm7
	movdqa	%xmm7, %xmm12
	pand	%xmm7, %xmm3
	pandn	%xmm0, %xmm12
	pand	%xmm7, %xmm0
	por	%xmm12, %xmm3
	movdqa	%xmm7, %xmm12
	movdqa	%xmm6, %xmm7
	pandn	%xmm8, %xmm12
	psubq	%xmm4, %xmm7
	movdqa	%xmm6, %xmm8
	por	%xmm12, %xmm0
	movdqa	%xmm5, %xmm12
	movaps	%xmm0, -176(%rbp)
	movdqa	%xmm4, %xmm0
	pcmpeqd	%xmm6, %xmm0
	pand	%xmm7, %xmm0
	movdqa	%xmm4, %xmm7
	pcmpgtd	%xmm6, %xmm7
	por	%xmm7, %xmm0
	pshufd	$245, %xmm0, %xmm0
	movdqa	%xmm0, %xmm7
	pand	%xmm0, %xmm8
	pandn	%xmm4, %xmm7
	pand	%xmm0, %xmm4
	por	%xmm7, %xmm8
	movdqa	%xmm0, %xmm7
	movdqa	%xmm11, %xmm0
	pandn	%xmm6, %xmm7
	movdqa	%xmm1, %xmm6
	psubq	%xmm1, %xmm0
	movaps	%xmm8, -144(%rbp)
	pcmpeqd	%xmm11, %xmm6
	por	%xmm7, %xmm4
	movdqa	%xmm9, %xmm8
	cmpq	$1, -192(%rbp)
	pand	%xmm0, %xmm6
	movdqa	%xmm1, %xmm0
	pcmpgtd	%xmm11, %xmm0
	por	%xmm0, %xmm6
	movdqa	%xmm11, %xmm0
	pshufd	$245, %xmm6, %xmm6
	movdqa	%xmm6, %xmm7
	pand	%xmm6, %xmm0
	pandn	%xmm1, %xmm7
	pand	%xmm6, %xmm1
	por	%xmm7, %xmm0
	movdqa	%xmm6, %xmm7
	pandn	%xmm11, %xmm7
	por	%xmm7, %xmm1
	movdqa	%xmm9, %xmm7
	movdqa	%xmm1, %xmm6
	movdqa	%xmm2, %xmm1
	psubq	%xmm2, %xmm7
	pcmpeqd	%xmm9, %xmm1
	pand	%xmm7, %xmm1
	movdqa	%xmm2, %xmm7
	pcmpgtd	%xmm9, %xmm7
	por	%xmm7, %xmm1
	pshufd	$245, %xmm1, %xmm1
	movdqa	%xmm1, %xmm7
	pand	%xmm1, %xmm8
	pandn	%xmm2, %xmm7
	pand	%xmm1, %xmm2
	por	%xmm7, %xmm8
	movdqa	%xmm1, %xmm7
	movdqa	%xmm10, %xmm1
	pandn	%xmm9, %xmm7
	pcmpeqd	%xmm3, %xmm1
	por	%xmm7, %xmm2
	movdqa	%xmm3, %xmm7
	psubq	%xmm10, %xmm7
	pand	%xmm7, %xmm1
	movdqa	%xmm10, %xmm7
	pcmpgtd	%xmm3, %xmm7
	por	%xmm7, %xmm1
	movdqa	%xmm3, %xmm7
	pshufd	$245, %xmm1, %xmm1
	movdqa	%xmm1, %xmm9
	pand	%xmm1, %xmm7
	pandn	%xmm10, %xmm9
	pand	%xmm1, %xmm10
	por	%xmm9, %xmm7
	movdqa	%xmm1, %xmm9
	movdqa	%xmm14, %xmm1
	pandn	%xmm3, %xmm9
	movdqa	%xmm15, %xmm3
	psubq	%xmm15, %xmm1
	pcmpeqd	%xmm14, %xmm3
	movdqa	%xmm10, %xmm13
	movdqa	%xmm14, %xmm10
	por	%xmm9, %xmm13
	movdqa	%xmm0, %xmm9
	pand	%xmm1, %xmm3
	movdqa	%xmm15, %xmm1
	pcmpgtd	%xmm14, %xmm1
	por	%xmm1, %xmm3
	pshufd	$245, %xmm3, %xmm3
	movdqa	%xmm3, %xmm1
	pand	%xmm3, %xmm10
	pandn	%xmm15, %xmm1
	pand	%xmm3, %xmm15
	por	%xmm1, %xmm10
	movdqa	%xmm3, %xmm1
	movdqa	%xmm5, %xmm3
	pandn	%xmm14, %xmm1
	movdqa	-64(%rbp), %xmm14
	pcmpeqd	%xmm10, %xmm9
	movdqa	%xmm10, %xmm11
	por	%xmm1, %xmm15
	movdqa	%xmm14, %xmm1
	psubq	%xmm14, %xmm3
	pcmpeqd	%xmm5, %xmm1
	pand	%xmm3, %xmm1
	movdqa	%xmm14, %xmm3
	pcmpgtd	%xmm5, %xmm3
	por	%xmm3, %xmm1
	pshufd	$245, %xmm1, %xmm1
	movdqa	%xmm1, %xmm3
	pand	%xmm1, %xmm12
	pandn	%xmm14, %xmm3
	por	%xmm3, %xmm12
	movdqa	%xmm1, %xmm3
	pand	%xmm14, %xmm1
	pandn	%xmm5, %xmm3
	por	%xmm3, %xmm1
	movdqa	%xmm10, %xmm3
	psubq	%xmm0, %xmm3
	pand	%xmm3, %xmm9
	movdqa	%xmm0, %xmm3
	pcmpgtd	%xmm10, %xmm3
	por	%xmm3, %xmm9
	pshufd	$245, %xmm9, %xmm9
	movdqa	%xmm9, %xmm3
	pand	%xmm9, %xmm11
	pandn	%xmm0, %xmm3
	por	%xmm3, %xmm11
	movdqa	%xmm9, %xmm3
	pand	%xmm0, %xmm9
	pandn	%xmm10, %xmm3
	movdqa	%xmm6, %xmm0
	movdqa	%xmm12, %xmm10
	por	%xmm3, %xmm9
	movdqa	%xmm15, %xmm3
	psubq	%xmm15, %xmm0
	pcmpeqd	%xmm6, %xmm3
	pand	%xmm0, %xmm3
	movdqa	%xmm15, %xmm0
	pcmpgtd	%xmm6, %xmm0
	por	%xmm0, %xmm3
	movdqa	%xmm6, %xmm0
	pshufd	$245, %xmm3, %xmm3
	movdqa	%xmm3, %xmm5
	pand	%xmm3, %xmm0
	pandn	%xmm15, %xmm5
	por	%xmm5, %xmm0
	movdqa	%xmm3, %xmm5
	pand	%xmm15, %xmm3
	pandn	%xmm6, %xmm5
	movdqa	%xmm12, %xmm6
	por	%xmm5, %xmm3
	movdqa	%xmm8, %xmm5
	psubq	%xmm8, %xmm6
	pcmpeqd	%xmm12, %xmm5
	pand	%xmm6, %xmm5
	movdqa	%xmm8, %xmm6
	pcmpgtd	%xmm12, %xmm6
	por	%xmm6, %xmm5
	pshufd	$245, %xmm5, %xmm5
	movdqa	%xmm5, %xmm6
	pand	%xmm5, %xmm10
	pandn	%xmm8, %xmm6
	pand	%xmm5, %xmm8
	por	%xmm6, %xmm10
	movdqa	%xmm5, %xmm6
	movdqa	%xmm1, %xmm5
	pandn	%xmm12, %xmm6
	pcmpeqd	%xmm2, %xmm5
	por	%xmm6, %xmm8
	movdqa	%xmm2, %xmm6
	psubq	%xmm1, %xmm6
	pand	%xmm6, %xmm5
	movdqa	%xmm1, %xmm6
	pcmpgtd	%xmm2, %xmm6
	por	%xmm6, %xmm5
	movdqa	%xmm2, %xmm6
	pshufd	$245, %xmm5, %xmm5
	movdqa	%xmm5, %xmm12
	pand	%xmm5, %xmm6
	pandn	%xmm1, %xmm12
	pand	%xmm5, %xmm1
	por	%xmm12, %xmm6
	movdqa	%xmm5, %xmm12
	movdqa	%xmm11, %xmm5
	pandn	%xmm2, %xmm12
	movdqa	%xmm4, %xmm2
	psubq	%xmm4, %xmm5
	pcmpeqd	%xmm11, %xmm2
	por	%xmm12, %xmm1
	movdqa	%xmm11, %xmm12
	pand	%xmm5, %xmm2
	movdqa	%xmm4, %xmm5
	pcmpgtd	%xmm11, %xmm5
	por	%xmm5, %xmm2
	pshufd	$245, %xmm2, %xmm2
	movdqa	%xmm2, %xmm5
	pand	%xmm2, %xmm12
	pandn	%xmm4, %xmm5
	pand	%xmm2, %xmm4
	por	%xmm12, %xmm5
	movdqa	%xmm2, %xmm12
	movdqa	%xmm0, %xmm2
	pandn	%xmm11, %xmm12
	pcmpeqd	%xmm9, %xmm2
	movdqa	%xmm9, %xmm11
	por	%xmm12, %xmm4
	movaps	%xmm4, -64(%rbp)
	movdqa	%xmm9, %xmm4
	psubq	%xmm0, %xmm4
	pand	%xmm4, %xmm2
	movdqa	%xmm0, %xmm4
	pcmpgtd	%xmm9, %xmm4
	por	%xmm4, %xmm2
	pshufd	$245, %xmm2, %xmm2
	movdqa	%xmm2, %xmm4
	pand	%xmm2, %xmm11
	pandn	%xmm0, %xmm4
	pand	%xmm2, %xmm0
	por	%xmm4, %xmm11
	movdqa	%xmm2, %xmm4
	movdqa	%xmm3, %xmm2
	pandn	%xmm9, %xmm4
	pcmpeqd	%xmm10, %xmm2
	movdqa	%xmm10, %xmm9
	movaps	%xmm11, -80(%rbp)
	por	%xmm4, %xmm0
	movdqa	%xmm10, %xmm4
	psubq	%xmm3, %xmm4
	pand	%xmm4, %xmm2
	movdqa	%xmm3, %xmm4
	pcmpgtd	%xmm10, %xmm4
	por	%xmm4, %xmm2
	pshufd	$245, %xmm2, %xmm2
	movdqa	%xmm2, %xmm4
	pand	%xmm2, %xmm9
	pandn	%xmm3, %xmm4
	pand	%xmm2, %xmm3
	por	%xmm4, %xmm9
	movdqa	%xmm2, %xmm4
	movdqa	%xmm8, %xmm2
	pandn	%xmm10, %xmm4
	psubq	%xmm6, %xmm2
	por	%xmm4, %xmm3
	movdqa	%xmm6, %xmm4
	pcmpeqd	%xmm8, %xmm4
	pand	%xmm2, %xmm4
	movdqa	%xmm6, %xmm2
	pcmpgtd	%xmm8, %xmm2
	por	%xmm2, %xmm4
	movdqa	%xmm8, %xmm2
	pshufd	$245, %xmm4, %xmm4
	movdqa	%xmm4, %xmm10
	pand	%xmm4, %xmm2
	pandn	%xmm6, %xmm10
	pand	%xmm4, %xmm6
	por	%xmm10, %xmm2
	movdqa	%xmm4, %xmm10
	movdqa	%xmm7, %xmm4
	pandn	%xmm8, %xmm10
	movdqa	%xmm1, %xmm8
	psubq	%xmm1, %xmm4
	pcmpeqd	%xmm7, %xmm8
	por	%xmm10, %xmm6
	pand	%xmm4, %xmm8
	movdqa	%xmm1, %xmm4
	pcmpgtd	%xmm7, %xmm4
	por	%xmm4, %xmm8
	movdqa	%xmm7, %xmm4
	pshufd	$245, %xmm8, %xmm8
	movdqa	%xmm8, %xmm10
	pand	%xmm8, %xmm4
	pandn	%xmm1, %xmm10
	pand	%xmm8, %xmm1
	por	%xmm10, %xmm4
	movdqa	%xmm8, %xmm10
	movdqa	%xmm0, %xmm8
	pandn	%xmm7, %xmm10
	movdqa	%xmm9, %xmm7
	psubq	%xmm9, %xmm8
	pcmpeqd	%xmm0, %xmm7
	por	%xmm10, %xmm1
	movdqa	%xmm0, %xmm10
	pand	%xmm8, %xmm7
	movdqa	%xmm9, %xmm8
	pcmpgtd	%xmm0, %xmm8
	por	%xmm8, %xmm7
	pshufd	$245, %xmm7, %xmm7
	movdqa	%xmm7, %xmm8
	pand	%xmm7, %xmm10
	pandn	%xmm9, %xmm8
	pand	%xmm7, %xmm9
	por	%xmm8, %xmm10
	movdqa	%xmm7, %xmm8
	movdqa	%xmm2, %xmm7
	pcmpeqd	%xmm3, %xmm7
	pandn	%xmm0, %xmm8
	movdqa	%xmm3, %xmm0
	movaps	%xmm10, -96(%rbp)
	psubq	%xmm2, %xmm0
	movdqa	%xmm9, %xmm14
	por	%xmm8, %xmm14
	pand	%xmm0, %xmm7
	movdqa	%xmm2, %xmm0
	pcmpgtd	%xmm3, %xmm0
	por	%xmm0, %xmm7
	movdqa	%xmm3, %xmm0
	pshufd	$245, %xmm7, %xmm7
	movdqa	%xmm7, %xmm8
	pand	%xmm7, %xmm0
	pandn	%xmm2, %xmm8
	pand	%xmm7, %xmm2
	por	%xmm8, %xmm0
	movdqa	%xmm7, %xmm8
	pandn	%xmm3, %xmm8
	por	%xmm8, %xmm2
	jbe	.L77
	movdqa	-112(%rbp), %xmm7
	pshufd	$78, %xmm4, %xmm4
	pshufd	$78, %xmm6, %xmm6
	pshufd	$78, -160(%rbp), %xmm10
	pshufd	$78, %xmm1, %xmm11
	pshufd	$78, %xmm13, %xmm8
	movdqa	-128(%rbp), %xmm9
	pshufd	$78, -176(%rbp), %xmm15
	movdqa	%xmm7, %xmm3
	movdqa	%xmm7, %xmm1
	movdqa	%xmm7, %xmm13
	movaps	%xmm11, -176(%rbp)
	pcmpeqd	%xmm10, %xmm3
	psubq	%xmm10, %xmm1
	movdqa	%xmm9, %xmm12
	pshufd	$78, %xmm2, %xmm2
	pshufd	$78, %xmm0, %xmm0
	pand	%xmm1, %xmm3
	movdqa	%xmm10, %xmm1
	pcmpgtd	%xmm7, %xmm1
	por	%xmm1, %xmm3
	pshufd	$245, %xmm3, %xmm3
	movdqa	%xmm3, %xmm1
	pand	%xmm3, %xmm13
	movaps	%xmm3, -208(%rbp)
	pandn	%xmm10, %xmm1
	por	%xmm1, %xmm13
	movdqa	%xmm3, %xmm1
	movdqa	-144(%rbp), %xmm3
	pandn	%xmm7, %xmm1
	movdqa	%xmm9, %xmm7
	pcmpeqd	%xmm15, %xmm7
	movaps	%xmm1, -256(%rbp)
	movdqa	%xmm9, %xmm1
	psubq	%xmm15, %xmm1
	pand	%xmm1, %xmm7
	movdqa	%xmm15, %xmm1
	pcmpgtd	%xmm9, %xmm1
	por	%xmm1, %xmm7
	pshufd	$245, %xmm7, %xmm7
	movdqa	%xmm7, %xmm1
	pand	%xmm7, %xmm12
	pandn	%xmm15, %xmm1
	por	%xmm1, %xmm12
	movdqa	%xmm7, %xmm1
	pand	%xmm15, %xmm7
	pandn	%xmm9, %xmm1
	movdqa	%xmm8, %xmm9
	movaps	%xmm1, -272(%rbp)
	movdqa	%xmm3, %xmm1
	psubq	%xmm8, %xmm1
	pcmpeqd	%xmm3, %xmm8
	movaps	%xmm9, -192(%rbp)
	pand	%xmm1, %xmm8
	movdqa	%xmm9, %xmm1
	movdqa	%xmm3, %xmm9
	pcmpgtd	%xmm3, %xmm1
	por	%xmm1, %xmm8
	pshufd	$245, %xmm8, %xmm8
	movdqa	%xmm8, %xmm1
	pandn	-192(%rbp), %xmm1
	pand	%xmm8, %xmm9
	por	%xmm1, %xmm9
	movdqa	%xmm5, %xmm1
	movaps	%xmm9, -128(%rbp)
	movdqa	%xmm8, %xmm9
	psubq	%xmm11, %xmm1
	pand	-192(%rbp), %xmm8
	pandn	%xmm3, %xmm9
	movaps	%xmm9, -288(%rbp)
	movdqa	%xmm1, %xmm9
	movdqa	%xmm11, %xmm1
	por	-288(%rbp), %xmm8
	pcmpeqd	%xmm5, %xmm1
	pshufd	$78, %xmm8, %xmm8
	pand	%xmm9, %xmm1
	movdqa	%xmm11, %xmm9
	movdqa	%xmm5, %xmm11
	pcmpgtd	%xmm5, %xmm9
	por	%xmm9, %xmm1
	pshufd	$245, %xmm1, %xmm1
	movdqa	%xmm1, %xmm9
	pand	%xmm1, %xmm11
	pandn	-176(%rbp), %xmm9
	por	%xmm9, %xmm11
	movaps	%xmm11, -144(%rbp)
	movdqa	%xmm1, %xmm11
	pand	-176(%rbp), %xmm1
	pandn	%xmm5, %xmm11
	movaps	%xmm11, -304(%rbp)
	movdqa	-64(%rbp), %xmm11
	por	-304(%rbp), %xmm1
	movdqa	%xmm11, %xmm5
	movdqa	%xmm11, %xmm9
	pshufd	$78, %xmm1, %xmm1
	pcmpeqd	%xmm4, %xmm5
	psubq	%xmm4, %xmm9
	pand	%xmm9, %xmm5
	movdqa	%xmm4, %xmm9
	pcmpgtd	%xmm11, %xmm9
	por	%xmm9, %xmm5
	pshufd	$245, %xmm5, %xmm5
	movdqa	%xmm5, %xmm9
	pandn	%xmm4, %xmm9
	pand	%xmm5, %xmm4
	movaps	%xmm9, -320(%rbp)
	movdqa	%xmm5, %xmm9
	pand	-64(%rbp), %xmm5
	por	-320(%rbp), %xmm5
	pandn	%xmm11, %xmm9
	movdqa	-80(%rbp), %xmm11
	por	%xmm9, %xmm4
	pshufd	$78, %xmm5, %xmm5
	movaps	%xmm4, -112(%rbp)
	movdqa	%xmm11, %xmm4
	movdqa	%xmm11, %xmm9
	pcmpeqd	%xmm6, %xmm4
	psubq	%xmm6, %xmm9
	pand	%xmm9, %xmm4
	movdqa	%xmm6, %xmm9
	pcmpgtd	%xmm11, %xmm9
	por	%xmm9, %xmm4
	pshufd	$245, %xmm4, %xmm4
	movdqa	%xmm4, %xmm3
	movdqa	%xmm4, %xmm9
	pandn	%xmm11, %xmm3
	movdqa	-96(%rbp), %xmm11
	pandn	%xmm6, %xmm9
	pand	%xmm4, %xmm6
	por	%xmm3, %xmm6
	movaps	%xmm9, -336(%rbp)
	pand	-80(%rbp), %xmm4
	por	-336(%rbp), %xmm4
	movdqa	%xmm11, %xmm3
	movaps	%xmm6, -160(%rbp)
	movdqa	%xmm11, %xmm6
	pcmpeqd	%xmm2, %xmm3
	psubq	%xmm2, %xmm6
	pshufd	$78, %xmm4, %xmm4
	movdqa	%xmm3, %xmm9
	pand	%xmm6, %xmm9
	movdqa	%xmm2, %xmm6
	pcmpgtd	%xmm11, %xmm6
	por	%xmm6, %xmm9
	pshufd	$245, %xmm9, %xmm9
	movdqa	%xmm9, %xmm3
	pandn	%xmm2, %xmm3
	pand	%xmm9, %xmm2
	movaps	%xmm3, -352(%rbp)
	movdqa	%xmm9, %xmm3
	pand	-96(%rbp), %xmm9
	por	-272(%rbp), %xmm7
	por	-352(%rbp), %xmm9
	pandn	%xmm11, %xmm3
	por	%xmm3, %xmm2
	movdqa	%xmm14, %xmm3
	pshufd	$78, %xmm7, %xmm15
	psubq	%xmm0, %xmm3
	pshufd	$78, %xmm9, %xmm9
	movdqa	%xmm3, %xmm11
	movdqa	%xmm0, %xmm3
	movaps	%xmm9, -80(%rbp)
	pcmpeqd	%xmm14, %xmm3
	movdqa	%xmm3, %xmm6
	movdqa	%xmm0, %xmm3
	pcmpgtd	%xmm14, %xmm3
	pand	%xmm11, %xmm6
	por	%xmm3, %xmm6
	pshufd	$245, %xmm6, %xmm6
	movdqa	%xmm6, %xmm3
	pandn	%xmm0, %xmm3
	pand	%xmm6, %xmm0
	movdqa	%xmm3, %xmm11
	movdqa	%xmm6, %xmm3
	pand	%xmm14, %xmm6
	pandn	%xmm14, %xmm3
	por	%xmm11, %xmm6
	por	%xmm3, %xmm0
	pshufd	$78, %xmm6, %xmm6
	movdqa	-208(%rbp), %xmm3
	movdqa	%xmm6, %xmm7
	movdqa	%xmm0, %xmm9
	pcmpeqd	%xmm13, %xmm7
	pand	%xmm10, %xmm3
	movdqa	%xmm13, %xmm10
	por	-256(%rbp), %xmm3
	pshufd	$78, %xmm3, %xmm14
	movdqa	%xmm13, %xmm3
	movdqa	%xmm7, %xmm11
	psubq	%xmm6, %xmm3
	movdqa	%xmm14, %xmm7
	pand	%xmm3, %xmm11
	pcmpeqd	%xmm0, %xmm7
	movdqa	%xmm6, %xmm3
	pcmpgtd	%xmm13, %xmm3
	por	%xmm3, %xmm11
	pshufd	$245, %xmm11, %xmm11
	movdqa	%xmm11, %xmm3
	pand	%xmm11, %xmm10
	pandn	%xmm6, %xmm3
	por	%xmm3, %xmm10
	movdqa	%xmm11, %xmm3
	pand	%xmm6, %xmm11
	pandn	%xmm13, %xmm3
	movdqa	-80(%rbp), %xmm13
	movaps	%xmm3, -96(%rbp)
	movdqa	%xmm0, %xmm3
	psubq	%xmm14, %xmm3
	pand	%xmm3, %xmm7
	movdqa	%xmm14, %xmm3
	pcmpgtd	%xmm0, %xmm3
	por	%xmm3, %xmm7
	pshufd	$245, %xmm7, %xmm7
	movdqa	%xmm7, %xmm3
	pand	%xmm7, %xmm9
	movaps	%xmm7, -256(%rbp)
	pandn	%xmm14, %xmm3
	por	%xmm3, %xmm9
	movdqa	%xmm7, %xmm3
	movdqa	-112(%rbp), %xmm7
	pandn	%xmm0, %xmm3
	movdqa	%xmm13, %xmm0
	pcmpeqd	%xmm12, %xmm0
	movaps	%xmm3, -272(%rbp)
	movdqa	%xmm12, %xmm3
	psubq	%xmm13, %xmm3
	pand	%xmm3, %xmm0
	movdqa	%xmm13, %xmm3
	movdqa	%xmm12, %xmm13
	pcmpgtd	%xmm12, %xmm3
	por	%xmm3, %xmm0
	pshufd	$245, %xmm0, %xmm0
	movdqa	%xmm0, %xmm3
	pandn	-80(%rbp), %xmm3
	pand	%xmm0, %xmm13
	por	%xmm3, %xmm13
	movdqa	%xmm0, %xmm3
	pand	-80(%rbp), %xmm0
	pandn	%xmm12, %xmm3
	movdqa	%xmm2, %xmm12
	movaps	%xmm13, -176(%rbp)
	movdqa	%xmm2, %xmm13
	movaps	%xmm3, -288(%rbp)
	movdqa	%xmm15, %xmm3
	psubq	%xmm15, %xmm12
	por	-288(%rbp), %xmm0
	pcmpeqd	%xmm2, %xmm3
	pshufd	$78, %xmm0, %xmm0
	pand	%xmm12, %xmm3
	movdqa	%xmm15, %xmm12
	pcmpgtd	%xmm2, %xmm12
	por	%xmm12, %xmm3
	pshufd	$245, %xmm3, %xmm3
	movdqa	%xmm3, %xmm12
	pand	%xmm3, %xmm13
	pandn	%xmm15, %xmm12
	por	%xmm12, %xmm13
	movdqa	%xmm3, %xmm12
	pand	%xmm15, %xmm3
	movaps	%xmm13, -192(%rbp)
	movdqa	-128(%rbp), %xmm13
	pandn	%xmm2, %xmm12
	movaps	%xmm12, -304(%rbp)
	movdqa	%xmm13, %xmm2
	psubq	%xmm4, %xmm2
	movdqa	%xmm2, %xmm12
	movdqa	%xmm13, %xmm2
	pcmpeqd	%xmm4, %xmm2
	pand	%xmm12, %xmm2
	movdqa	%xmm4, %xmm12
	pcmpgtd	%xmm13, %xmm12
	por	%xmm12, %xmm2
	pshufd	$245, %xmm2, %xmm2
	movdqa	%xmm2, %xmm12
	pandn	%xmm4, %xmm12
	pand	%xmm2, %xmm4
	movaps	%xmm12, -320(%rbp)
	movdqa	%xmm2, %xmm12
	pand	-128(%rbp), %xmm2
	por	-320(%rbp), %xmm2
	pandn	%xmm13, %xmm12
	movdqa	-160(%rbp), %xmm13
	por	%xmm12, %xmm4
	pshufd	$78, %xmm2, %xmm2
	movaps	%xmm4, -208(%rbp)
	movdqa	%xmm13, %xmm4
	movdqa	%xmm13, %xmm12
	pcmpeqd	%xmm8, %xmm4
	psubq	%xmm8, %xmm12
	pand	%xmm12, %xmm4
	movdqa	%xmm8, %xmm12
	pcmpgtd	%xmm13, %xmm12
	por	%xmm12, %xmm4
	pshufd	$245, %xmm4, %xmm4
	movdqa	%xmm4, %xmm12
	pandn	%xmm8, %xmm12
	pand	%xmm4, %xmm8
	movaps	%xmm12, -336(%rbp)
	movdqa	%xmm4, %xmm12
	pandn	%xmm13, %xmm12
	movdqa	-144(%rbp), %xmm13
	por	%xmm12, %xmm8
	movaps	%xmm8, -64(%rbp)
	movdqa	%xmm13, %xmm8
	movdqa	%xmm13, %xmm12
	pcmpeqd	%xmm5, %xmm8
	psubq	%xmm5, %xmm12
	pand	%xmm12, %xmm8
	movdqa	%xmm5, %xmm12
	pcmpgtd	%xmm13, %xmm12
	por	%xmm12, %xmm8
	pshufd	$245, %xmm8, %xmm8
	movdqa	%xmm8, %xmm12
	pandn	%xmm5, %xmm12
	pand	%xmm8, %xmm5
	movaps	%xmm12, -352(%rbp)
	movdqa	%xmm8, %xmm12
	pand	-144(%rbp), %xmm8
	por	-352(%rbp), %xmm8
	pandn	%xmm13, %xmm12
	movdqa	%xmm7, %xmm13
	por	%xmm12, %xmm5
	movdqa	%xmm7, %xmm12
	psubq	%xmm1, %xmm13
	pcmpeqd	%xmm1, %xmm12
	pshufd	$78, %xmm8, %xmm8
	pand	%xmm13, %xmm12
	movdqa	%xmm1, %xmm13
	pcmpgtd	-112(%rbp), %xmm13
	por	%xmm13, %xmm12
	pshufd	$245, %xmm12, %xmm12
	movdqa	%xmm12, %xmm13
	movdqa	%xmm12, %xmm7
	pandn	-112(%rbp), %xmm7
	pandn	%xmm1, %xmm13
	pand	%xmm12, %xmm1
	por	-96(%rbp), %xmm11
	movdqa	-176(%rbp), %xmm15
	por	%xmm7, %xmm1
	movdqa	-256(%rbp), %xmm7
	por	-304(%rbp), %xmm3
	pshufd	$78, %xmm11, %xmm6
	pand	-160(%rbp), %xmm4
	por	-336(%rbp), %xmm4
	pand	%xmm14, %xmm7
	movaps	%xmm6, -80(%rbp)
	movdqa	-112(%rbp), %xmm6
	por	-272(%rbp), %xmm7
	movdqa	%xmm10, %xmm14
	pshufd	$78, %xmm4, %xmm4
	pshufd	$78, %xmm3, %xmm3
	pshufd	$78, %xmm7, %xmm7
	pand	%xmm12, %xmm6
	movdqa	-80(%rbp), %xmm12
	movaps	%xmm7, -112(%rbp)
	movdqa	%xmm8, %xmm7
	por	%xmm13, %xmm6
	pcmpeqd	%xmm10, %xmm7
	pshufd	$78, %xmm6, %xmm11
	movdqa	%xmm10, %xmm6
	psubq	%xmm8, %xmm6
	movaps	%xmm11, -96(%rbp)
	movdqa	%xmm15, %xmm11
	pcmpeqd	%xmm2, %xmm11
	pand	%xmm6, %xmm7
	movdqa	%xmm8, %xmm6
	pcmpgtd	%xmm10, %xmm6
	por	%xmm6, %xmm7
	pshufd	$245, %xmm7, %xmm7
	pand	%xmm7, %xmm14
	movdqa	%xmm7, %xmm6
	pandn	%xmm8, %xmm6
	movdqa	%xmm14, %xmm13
	por	%xmm6, %xmm13
	movdqa	%xmm7, %xmm6
	pand	%xmm8, %xmm7
	pandn	%xmm10, %xmm6
	movdqa	%xmm5, %xmm10
	movaps	%xmm6, -272(%rbp)
	movdqa	%xmm15, %xmm6
	psubq	%xmm12, %xmm10
	psubq	%xmm2, %xmm6
	pand	%xmm6, %xmm11
	movdqa	%xmm2, %xmm6
	pcmpgtd	%xmm15, %xmm6
	por	%xmm6, %xmm11
	pshufd	$245, %xmm11, %xmm11
	movdqa	%xmm11, %xmm14
	movdqa	%xmm11, %xmm6
	pandn	%xmm2, %xmm14
	pandn	%xmm15, %xmm6
	pand	%xmm11, %xmm2
	por	%xmm6, %xmm2
	movdqa	%xmm12, %xmm6
	movdqa	%xmm9, %xmm15
	movaps	%xmm14, -288(%rbp)
	pcmpeqd	%xmm5, %xmm6
	movaps	%xmm2, -144(%rbp)
	movdqa	-208(%rbp), %xmm14
	pand	%xmm10, %xmm6
	movdqa	%xmm12, %xmm10
	movdqa	%xmm5, %xmm12
	pcmpgtd	%xmm5, %xmm10
	por	%xmm10, %xmm6
	pshufd	$245, %xmm6, %xmm6
	movdqa	%xmm6, %xmm10
	pandn	-80(%rbp), %xmm10
	pand	%xmm6, %xmm12
	por	%xmm10, %xmm12
	movdqa	%xmm6, %xmm10
	pandn	%xmm5, %xmm10
	movdqa	%xmm14, %xmm5
	movaps	%xmm10, -304(%rbp)
	movdqa	%xmm14, %xmm10
	psubq	%xmm0, %xmm5
	pcmpeqd	%xmm0, %xmm10
	pand	%xmm5, %xmm10
	movdqa	%xmm0, %xmm5
	pcmpgtd	%xmm14, %xmm5
	por	%xmm5, %xmm10
	pshufd	$245, %xmm10, %xmm10
	movdqa	%xmm10, %xmm5
	pandn	%xmm0, %xmm5
	pand	%xmm10, %xmm0
	movaps	%xmm5, -320(%rbp)
	movdqa	%xmm10, %xmm5
	pandn	%xmm14, %xmm5
	por	%xmm5, %xmm0
	movdqa	-96(%rbp), %xmm5
	psubq	%xmm5, %xmm15
	movdqa	%xmm15, %xmm14
	movdqa	%xmm5, %xmm15
	pcmpeqd	%xmm9, %xmm5
	pand	%xmm14, %xmm5
	movdqa	%xmm15, %xmm14
	movdqa	%xmm9, %xmm15
	pcmpgtd	%xmm9, %xmm14
	por	%xmm14, %xmm5
	pshufd	$245, %xmm5, %xmm5
	movdqa	%xmm5, %xmm14
	pandn	-96(%rbp), %xmm14
	pand	%xmm5, %xmm15
	por	%xmm14, %xmm15
	movaps	%xmm15, -160(%rbp)
	movdqa	%xmm5, %xmm15
	pandn	%xmm9, %xmm15
	movaps	%xmm15, -336(%rbp)
	movdqa	-192(%rbp), %xmm15
	movdqa	%xmm15, %xmm9
	movdqa	%xmm15, %xmm14
	pcmpeqd	%xmm4, %xmm9
	psubq	%xmm4, %xmm14
	pand	%xmm14, %xmm9
	movdqa	%xmm4, %xmm14
	pcmpgtd	%xmm15, %xmm14
	por	%xmm14, %xmm9
	pshufd	$245, %xmm9, %xmm9
	movdqa	%xmm9, %xmm14
	movdqa	%xmm9, %xmm2
	pandn	%xmm4, %xmm14
	pandn	%xmm15, %xmm2
	pand	%xmm9, %xmm4
	movdqa	-112(%rbp), %xmm15
	por	%xmm2, %xmm4
	movaps	%xmm14, -352(%rbp)
	movdqa	%xmm1, %xmm2
	movaps	%xmm4, -128(%rbp)
	movdqa	%xmm15, %xmm4
	movdqa	%xmm15, %xmm14
	psubq	%xmm15, %xmm2
	pcmpeqd	%xmm1, %xmm4
	pcmpgtd	%xmm1, %xmm14
	pand	%xmm2, %xmm4
	por	%xmm14, %xmm4
	pshufd	$245, %xmm4, %xmm4
	movdqa	%xmm4, %xmm2
	pandn	-112(%rbp), %xmm2
	movdqa	%xmm2, %xmm14
	movdqa	%xmm1, %xmm2
	pand	%xmm4, %xmm2
	movdqa	%xmm2, %xmm15
	movdqa	%xmm4, %xmm2
	pandn	%xmm1, %xmm2
	por	%xmm14, %xmm15
	movaps	%xmm2, -368(%rbp)
	movdqa	-64(%rbp), %xmm2
	movdqa	%xmm2, %xmm14
	movdqa	%xmm2, %xmm1
	pcmpeqd	%xmm3, %xmm14
	psubq	%xmm3, %xmm1
	pand	%xmm1, %xmm14
	movdqa	%xmm3, %xmm1
	pcmpgtd	-64(%rbp), %xmm1
	por	%xmm1, %xmm14
	pshufd	$245, %xmm14, %xmm14
	movdqa	%xmm14, %xmm1
	movdqa	%xmm14, %xmm2
	pandn	%xmm3, %xmm1
	pand	%xmm14, %xmm3
	movaps	%xmm1, -384(%rbp)
	pandn	-64(%rbp), %xmm2
	pand	-176(%rbp), %xmm11
	por	-288(%rbp), %xmm11
	pand	-96(%rbp), %xmm5
	por	%xmm2, %xmm3
	pand	-80(%rbp), %xmm6
	por	-336(%rbp), %xmm5
	pshufd	$78, %xmm11, %xmm11
	movaps	%xmm3, -256(%rbp)
	movdqa	-64(%rbp), %xmm8
	por	-272(%rbp), %xmm7
	movdqa	%xmm11, %xmm2
	pshufd	$78, %xmm5, %xmm1
	movdqa	-144(%rbp), %xmm5
	pand	-208(%rbp), %xmm10
	pcmpeqd	%xmm13, %xmm2
	movaps	%xmm1, -80(%rbp)
	movdqa	%xmm13, %xmm1
	pand	%xmm14, %xmm8
	psubq	%xmm11, %xmm1
	movdqa	%xmm13, %xmm14
	pshufd	$78, %xmm7, %xmm7
	por	-320(%rbp), %xmm10
	pand	-112(%rbp), %xmm4
	movdqa	%xmm2, %xmm3
	movdqa	%xmm5, %xmm2
	por	-304(%rbp), %xmm6
	pand	%xmm1, %xmm3
	movdqa	%xmm11, %xmm1
	psubq	%xmm7, %xmm2
	pcmpgtd	%xmm13, %xmm1
	pshufd	$78, %xmm10, %xmm10
	pshufd	$78, %xmm6, %xmm6
	pand	-192(%rbp), %xmm9
	por	-368(%rbp), %xmm4
	por	-352(%rbp), %xmm9
	por	-384(%rbp), %xmm8
	por	%xmm1, %xmm3
	pshufd	$78, %xmm4, %xmm4
	pshufd	$245, %xmm3, %xmm3
	pshufd	$78, %xmm9, %xmm9
	pshufd	$78, %xmm8, %xmm8
	movdqa	%xmm3, %xmm1
	pand	%xmm3, %xmm14
	pandn	%xmm11, %xmm1
	por	%xmm1, %xmm14
	movdqa	%xmm3, %xmm1
	pand	%xmm11, %xmm3
	pandn	%xmm13, %xmm1
	movdqa	%xmm7, %xmm11
	por	%xmm1, %xmm3
	pcmpgtd	%xmm5, %xmm11
	movdqa	%xmm7, %xmm1
	pcmpeqd	%xmm5, %xmm1
	pand	%xmm2, %xmm1
	movdqa	%xmm5, %xmm2
	por	%xmm11, %xmm1
	pshufd	$245, %xmm1, %xmm1
	pand	%xmm1, %xmm2
	movdqa	%xmm1, %xmm13
	pandn	%xmm7, %xmm13
	movdqa	%xmm2, %xmm11
	movdqa	%xmm12, %xmm2
	por	%xmm13, %xmm11
	movdqa	%xmm1, %xmm13
	pand	%xmm7, %xmm1
	pandn	%xmm5, %xmm13
	psubq	%xmm10, %xmm2
	movdqa	-160(%rbp), %xmm5
	por	%xmm13, %xmm1
	movdqa	%xmm10, %xmm13
	pcmpeqd	%xmm12, %xmm13
	movdqa	%xmm13, %xmm7
	movdqa	%xmm12, %xmm13
	pand	%xmm2, %xmm7
	movdqa	%xmm10, %xmm2
	pcmpgtd	%xmm12, %xmm2
	por	%xmm2, %xmm7
	pshufd	$245, %xmm7, %xmm7
	movdqa	%xmm7, %xmm2
	pand	%xmm7, %xmm13
	pandn	%xmm10, %xmm2
	por	%xmm13, %xmm2
	movdqa	%xmm7, %xmm13
	pand	%xmm10, %xmm7
	pandn	%xmm12, %xmm13
	movdqa	%xmm6, %xmm12
	movdqa	%xmm0, %xmm10
	pcmpeqd	%xmm0, %xmm12
	por	%xmm7, %xmm13
	psubq	%xmm6, %xmm10
	movdqa	%xmm12, %xmm7
	movdqa	%xmm0, %xmm12
	pand	%xmm10, %xmm7
	movdqa	%xmm6, %xmm10
	pcmpgtd	%xmm0, %xmm10
	por	%xmm10, %xmm7
	pshufd	$245, %xmm7, %xmm7
	movdqa	%xmm7, %xmm10
	pand	%xmm7, %xmm12
	pandn	%xmm6, %xmm10
	por	%xmm10, %xmm12
	movdqa	%xmm7, %xmm10
	pand	%xmm6, %xmm7
	pandn	%xmm0, %xmm10
	movdqa	%xmm5, %xmm0
	movdqa	%xmm5, %xmm6
	pcmpeqd	%xmm9, %xmm0
	psubq	%xmm9, %xmm6
	por	%xmm7, %xmm10
	movdqa	%xmm5, %xmm7
	pand	%xmm6, %xmm0
	movdqa	%xmm9, %xmm6
	pcmpgtd	%xmm5, %xmm6
	por	%xmm6, %xmm0
	pshufd	$245, %xmm0, %xmm0
	movdqa	%xmm0, %xmm6
	pand	%xmm0, %xmm7
	pandn	%xmm9, %xmm6
	por	%xmm6, %xmm7
	movdqa	%xmm0, %xmm6
	pand	%xmm9, %xmm0
	movaps	%xmm7, -160(%rbp)
	movdqa	-128(%rbp), %xmm7
	pandn	%xmm5, %xmm6
	movdqa	-80(%rbp), %xmm5
	movdqa	%xmm0, %xmm9
	movdqa	%xmm7, %xmm0
	por	%xmm6, %xmm9
	movdqa	%xmm7, %xmm6
	pcmpeqd	%xmm5, %xmm0
	psubq	%xmm5, %xmm6
	pand	%xmm6, %xmm0
	movdqa	%xmm5, %xmm6
	pcmpgtd	%xmm7, %xmm6
	por	%xmm6, %xmm0
	pshufd	$245, %xmm0, %xmm0
	movdqa	%xmm0, %xmm6
	pandn	-80(%rbp), %xmm6
	pand	%xmm0, %xmm7
	movdqa	%xmm0, %xmm5
	pand	-80(%rbp), %xmm0
	pandn	-128(%rbp), %xmm5
	por	%xmm6, %xmm7
	movdqa	%xmm8, %xmm6
	pcmpeqd	%xmm15, %xmm6
	por	%xmm5, %xmm0
	movdqa	%xmm15, %xmm5
	psubq	%xmm8, %xmm5
	movaps	%xmm0, -176(%rbp)
	movdqa	%xmm6, %xmm0
	movdqa	%xmm15, %xmm6
	pand	%xmm5, %xmm0
	movdqa	%xmm8, %xmm5
	pcmpgtd	%xmm15, %xmm5
	por	%xmm5, %xmm0
	pshufd	$245, %xmm0, %xmm0
	movdqa	%xmm0, %xmm5
	pand	%xmm0, %xmm6
	pandn	%xmm8, %xmm5
	por	%xmm5, %xmm6
	movdqa	%xmm0, %xmm5
	pand	%xmm8, %xmm0
	pandn	%xmm15, %xmm5
	movdqa	%xmm0, %xmm8
	movdqa	-256(%rbp), %xmm15
	movaps	%xmm6, -192(%rbp)
	por	%xmm5, %xmm8
	movdqa	%xmm15, %xmm0
	movdqa	%xmm15, %xmm5
	movdqa	%xmm15, %xmm6
	pcmpeqd	%xmm4, %xmm0
	psubq	%xmm4, %xmm5
	pand	%xmm5, %xmm0
	movdqa	%xmm4, %xmm5
	pcmpgtd	%xmm15, %xmm5
	por	%xmm5, %xmm0
	pshufd	$245, %xmm0, %xmm0
	movdqa	%xmm0, %xmm5
	pand	%xmm0, %xmm6
	pandn	%xmm4, %xmm5
	por	%xmm5, %xmm6
	movdqa	%xmm0, %xmm5
	pand	%xmm4, %xmm0
	pandn	%xmm15, %xmm5
	pshufd	$78, %xmm14, %xmm4
	movdqa	%xmm0, %xmm15
	movaps	%xmm6, -208(%rbp)
	movdqa	%xmm14, %xmm0
	por	%xmm5, %xmm15
	movdqa	%xmm14, %xmm5
	pcmpeqd	%xmm4, %xmm0
	psubq	%xmm4, %xmm5
	pand	%xmm5, %xmm0
	movdqa	%xmm4, %xmm5
	pcmpgtd	%xmm14, %xmm5
	por	%xmm5, %xmm0
	pshufd	$245, %xmm0, %xmm0
	movdqa	%xmm0, %xmm5
	pandn	%xmm4, %xmm5
	movdqa	%xmm5, %xmm6
	movdqa	%xmm0, %xmm5
	pandn	%xmm14, %xmm5
	pand	%xmm0, %xmm14
	pand	%xmm4, %xmm0
	por	%xmm5, %xmm0
	pshufd	$78, %xmm3, %xmm4
	por	%xmm6, %xmm14
	movapd	%xmm0, %xmm5
	movdqa	%xmm3, %xmm0
	movsd	%xmm14, %xmm5
	pcmpeqd	%xmm4, %xmm0
	movaps	%xmm5, -112(%rbp)
	movdqa	%xmm3, %xmm5
	psubq	%xmm4, %xmm5
	pand	%xmm5, %xmm0
	movdqa	%xmm4, %xmm5
	pcmpgtd	%xmm3, %xmm5
	por	%xmm5, %xmm0
	pshufd	$245, %xmm0, %xmm0
	movdqa	%xmm0, %xmm5
	pandn	%xmm4, %xmm5
	movdqa	%xmm5, %xmm6
	movdqa	%xmm0, %xmm5
	pandn	%xmm3, %xmm5
	pand	%xmm0, %xmm3
	pand	%xmm4, %xmm0
	por	%xmm5, %xmm0
	por	%xmm6, %xmm3
	movapd	%xmm0, %xmm5
	movsd	%xmm3, %xmm5
	pshufd	$78, %xmm11, %xmm3
	movaps	%xmm5, -128(%rbp)
	movdqa	%xmm11, %xmm5
	psubq	%xmm3, %xmm5
	movdqa	%xmm5, %xmm4
	movdqa	%xmm11, %xmm5
	pcmpeqd	%xmm3, %xmm5
	movdqa	%xmm5, %xmm0
	movdqa	%xmm3, %xmm5
	pcmpgtd	%xmm11, %xmm5
	pand	%xmm4, %xmm0
	por	%xmm5, %xmm0
	pshufd	$245, %xmm0, %xmm0
	movdqa	%xmm0, %xmm14
	movdqa	%xmm0, %xmm5
	pandn	%xmm11, %xmm14
	pand	%xmm0, %xmm11
	pand	%xmm3, %xmm0
	pandn	%xmm3, %xmm5
	por	%xmm14, %xmm0
	pshufd	$78, %xmm1, %xmm3
	por	%xmm5, %xmm11
	movapd	%xmm0, %xmm5
	movsd	%xmm11, %xmm5
	movaps	%xmm5, -144(%rbp)
	movdqa	%xmm1, %xmm5
	psubq	%xmm3, %xmm5
	movdqa	%xmm5, %xmm4
	movdqa	%xmm1, %xmm5
	pcmpeqd	%xmm3, %xmm5
	movdqa	%xmm5, %xmm0
	movdqa	%xmm3, %xmm5
	pcmpgtd	%xmm1, %xmm5
	pand	%xmm4, %xmm0
	por	%xmm5, %xmm0
	pshufd	$245, %xmm0, %xmm0
	movdqa	%xmm0, %xmm14
	movdqa	%xmm0, %xmm5
	pandn	%xmm1, %xmm14
	pand	%xmm0, %xmm1
	pand	%xmm3, %xmm0
	pandn	%xmm3, %xmm5
	por	%xmm14, %xmm0
	movdqa	%xmm2, %xmm3
	por	%xmm5, %xmm1
	movapd	%xmm0, %xmm5
	movdqa	%xmm2, %xmm0
	movsd	%xmm1, %xmm5
	pshufd	$78, %xmm2, %xmm1
	pcmpeqd	%xmm1, %xmm0
	psubq	%xmm1, %xmm3
	pand	%xmm3, %xmm0
	movdqa	%xmm1, %xmm3
	pcmpgtd	%xmm2, %xmm3
	por	%xmm3, %xmm0
	pshufd	$245, %xmm0, %xmm0
	movdqa	%xmm0, %xmm3
	pandn	%xmm1, %xmm3
	movdqa	%xmm3, %xmm4
	movdqa	%xmm0, %xmm3
	pandn	%xmm2, %xmm3
	pand	%xmm0, %xmm2
	pand	%xmm1, %xmm0
	por	%xmm3, %xmm0
	por	%xmm4, %xmm2
	movdqa	%xmm13, %xmm3
	movdqa	-160(%rbp), %xmm4
	movapd	%xmm0, %xmm1
	movsd	%xmm2, %xmm1
	movdqa	%xmm13, %xmm2
	movaps	%xmm1, -64(%rbp)
	pshufd	$78, %xmm13, %xmm1
	pcmpeqd	%xmm1, %xmm3
	psubq	%xmm1, %xmm2
	movdqa	%xmm3, %xmm0
	pand	%xmm2, %xmm0
	movdqa	%xmm1, %xmm2
	pcmpgtd	%xmm13, %xmm2
	por	%xmm2, %xmm0
	pshufd	$245, %xmm0, %xmm0
	movdqa	%xmm0, %xmm3
	movdqa	%xmm0, %xmm2
	pandn	%xmm1, %xmm3
	pandn	%xmm13, %xmm2
	pand	%xmm0, %xmm13
	pand	%xmm1, %xmm0
	por	%xmm3, %xmm13
	pshufd	$78, %xmm12, %xmm1
	por	%xmm2, %xmm0
	movdqa	%xmm12, %xmm3
	pcmpeqd	%xmm1, %xmm3
	movapd	%xmm0, %xmm2
	movsd	%xmm13, %xmm2
	movdqa	-176(%rbp), %xmm13
	movaps	%xmm2, -80(%rbp)
	movdqa	%xmm12, %xmm2
	psubq	%xmm1, %xmm2
	movdqa	%xmm3, %xmm0
	pand	%xmm2, %xmm0
	movdqa	%xmm1, %xmm2
	pcmpgtd	%xmm12, %xmm2
	por	%xmm2, %xmm0
	pshufd	$245, %xmm0, %xmm0
	movdqa	%xmm0, %xmm3
	movdqa	%xmm0, %xmm2
	pandn	%xmm1, %xmm3
	pandn	%xmm12, %xmm2
	pand	%xmm0, %xmm12
	pand	%xmm1, %xmm0
	por	%xmm3, %xmm12
	pshufd	$78, %xmm10, %xmm1
	por	%xmm2, %xmm0
	movdqa	%xmm10, %xmm3
	pcmpeqd	%xmm1, %xmm3
	movapd	%xmm0, %xmm2
	movsd	%xmm12, %xmm2
	movaps	%xmm2, -96(%rbp)
	movdqa	%xmm10, %xmm2
	psubq	%xmm1, %xmm2
	movdqa	%xmm3, %xmm0
	pand	%xmm2, %xmm0
	movdqa	%xmm1, %xmm2
	pcmpgtd	%xmm10, %xmm2
	por	%xmm2, %xmm0
	pshufd	$245, %xmm0, %xmm0
	movdqa	%xmm0, %xmm2
	movdqa	%xmm0, %xmm3
	pandn	%xmm10, %xmm2
	pand	%xmm0, %xmm10
	pand	%xmm1, %xmm0
	pandn	%xmm1, %xmm3
	por	%xmm2, %xmm0
	pshufd	$78, %xmm4, %xmm1
	por	%xmm3, %xmm10
	movapd	%xmm0, %xmm2
	movdqa	%xmm4, %xmm0
	movsd	%xmm10, %xmm2
	pcmpeqd	%xmm1, %xmm0
	movapd	%xmm2, %xmm14
	movdqa	%xmm4, %xmm2
	psubq	%xmm1, %xmm2
	pand	%xmm2, %xmm0
	movdqa	%xmm1, %xmm2
	pcmpgtd	%xmm4, %xmm2
	por	%xmm2, %xmm0
	pshufd	$245, %xmm0, %xmm0
	movdqa	%xmm0, %xmm2
	movdqa	%xmm0, %xmm3
	pandn	%xmm4, %xmm2
	pand	%xmm0, %xmm4
	pand	%xmm1, %xmm0
	pandn	%xmm1, %xmm3
	por	%xmm2, %xmm0
	pshufd	$78, %xmm9, %xmm1
	movdqa	%xmm9, %xmm2
	por	%xmm3, %xmm4
	movdqa	%xmm9, %xmm3
	pcmpeqd	%xmm1, %xmm2
	psubq	%xmm1, %xmm3
	movsd	%xmm4, %xmm0
	pand	%xmm3, %xmm2
	movdqa	%xmm1, %xmm3
	pcmpgtd	%xmm9, %xmm3
	por	%xmm3, %xmm2
	pshufd	$245, %xmm2, %xmm2
	movdqa	%xmm2, %xmm4
	movdqa	%xmm2, %xmm3
	pandn	%xmm1, %xmm4
	pandn	%xmm9, %xmm3
	pand	%xmm2, %xmm9
	por	%xmm4, %xmm9
	pand	%xmm1, %xmm2
	movdqa	%xmm7, %xmm4
	pshufd	$78, %xmm7, %xmm1
	por	%xmm3, %xmm2
	movdqa	%xmm7, %xmm3
	pcmpeqd	%xmm1, %xmm4
	psubq	%xmm1, %xmm3
	movsd	%xmm9, %xmm2
	movdqa	%xmm4, %xmm6
	pand	%xmm3, %xmm6
	movdqa	%xmm1, %xmm3
	pcmpgtd	%xmm7, %xmm3
	por	%xmm3, %xmm6
	pshufd	$245, %xmm6, %xmm6
	movdqa	%xmm6, %xmm4
	movdqa	%xmm6, %xmm3
	pandn	%xmm1, %xmm4
	pandn	%xmm7, %xmm3
	pand	%xmm6, %xmm7
	por	%xmm4, %xmm7
	pand	%xmm1, %xmm6
	movdqa	%xmm13, %xmm4
	pshufd	$78, %xmm13, %xmm1
	por	%xmm3, %xmm6
	movdqa	%xmm13, %xmm3
	pcmpeqd	%xmm1, %xmm4
	psubq	%xmm1, %xmm3
	movsd	%xmm7, %xmm6
	pand	%xmm3, %xmm4
	movdqa	%xmm1, %xmm3
	pcmpgtd	%xmm13, %xmm3
	por	%xmm3, %xmm4
	pshufd	$245, %xmm4, %xmm4
	movdqa	%xmm4, %xmm3
	movdqa	%xmm4, %xmm7
	pandn	%xmm13, %xmm3
	pand	%xmm4, %xmm13
	pand	%xmm1, %xmm4
	movdqa	%xmm13, %xmm9
	pandn	%xmm1, %xmm7
	por	%xmm3, %xmm4
	movdqa	-192(%rbp), %xmm13
	por	%xmm7, %xmm9
	pshufd	$78, %xmm13, %xmm3
	movdqa	%xmm13, %xmm1
	movdqa	%xmm13, %xmm7
	pcmpeqd	%xmm3, %xmm1
	psubq	%xmm3, %xmm7
	movsd	%xmm9, %xmm4
	pand	%xmm7, %xmm1
	movdqa	%xmm3, %xmm7
	pcmpgtd	%xmm13, %xmm7
	por	%xmm7, %xmm1
	pshufd	$245, %xmm1, %xmm1
	movdqa	%xmm1, %xmm7
	movdqa	%xmm1, %xmm9
	pandn	%xmm13, %xmm7
	pand	%xmm1, %xmm13
	pand	%xmm3, %xmm1
	pandn	%xmm3, %xmm9
	por	%xmm7, %xmm1
	movdqa	%xmm8, %xmm3
	pshufd	$78, %xmm8, %xmm7
	movdqa	%xmm13, %xmm10
	movdqa	-208(%rbp), %xmm13
	pcmpeqd	%xmm7, %xmm3
	por	%xmm9, %xmm10
	movdqa	%xmm8, %xmm9
	psubq	%xmm7, %xmm9
	movsd	%xmm10, %xmm1
	pand	%xmm9, %xmm3
	movdqa	%xmm7, %xmm9
	pcmpgtd	%xmm8, %xmm9
	por	%xmm9, %xmm3
	pshufd	$245, %xmm3, %xmm3
	movdqa	%xmm3, %xmm10
	movdqa	%xmm3, %xmm9
	pandn	%xmm7, %xmm10
	pandn	%xmm8, %xmm9
	pand	%xmm3, %xmm8
	pand	%xmm7, %xmm3
	por	%xmm10, %xmm8
	pshufd	$78, %xmm13, %xmm7
	por	%xmm9, %xmm3
	movdqa	%xmm13, %xmm9
	shufpd	$2, %xmm3, %xmm8
	movdqa	%xmm13, %xmm3
	psubq	%xmm7, %xmm9
	pcmpeqd	%xmm7, %xmm3
	pand	%xmm9, %xmm3
	movdqa	%xmm7, %xmm9
	pcmpgtd	%xmm13, %xmm9
	por	%xmm9, %xmm3
	pshufd	$245, %xmm3, %xmm3
	movdqa	%xmm3, %xmm9
	movdqa	%xmm3, %xmm10
	pandn	%xmm13, %xmm9
	pand	%xmm3, %xmm13
	pand	%xmm7, %xmm3
	por	%xmm9, %xmm3
	pandn	%xmm7, %xmm10
	pshufd	$78, %xmm15, %xmm9
	movapd	%xmm3, %xmm7
	movdqa	%xmm15, %xmm3
	movdqa	%xmm13, %xmm11
	pcmpeqd	%xmm9, %xmm3
	por	%xmm10, %xmm11
	movdqa	%xmm15, %xmm10
	psubq	%xmm9, %xmm10
	movsd	%xmm11, %xmm7
	pand	%xmm10, %xmm3
	movdqa	%xmm9, %xmm10
	pcmpgtd	%xmm15, %xmm10
	por	%xmm10, %xmm3
	pshufd	$245, %xmm3, %xmm3
	movdqa	%xmm3, %xmm11
	movdqa	%xmm3, %xmm10
	pandn	%xmm15, %xmm10
	pandn	%xmm9, %xmm11
	pand	%xmm3, %xmm15
	pand	%xmm9, %xmm3
	por	%xmm11, %xmm15
	por	%xmm10, %xmm3
	movsd	%xmm15, %xmm3
.L75:
	movdqa	-112(%rbp), %xmm15
	movq	-232(%rbp), %rdx
	movups	%xmm15, (%rdx)
	movdqa	-128(%rbp), %xmm15
	movups	%xmm15, (%r15)
	movdqa	-144(%rbp), %xmm15
	movups	%xmm15, (%r14)
	movups	%xmm5, 0(%r13)
	movdqa	-64(%rbp), %xmm5
	movups	%xmm5, (%r12)
	movdqa	-80(%rbp), %xmm5
	movups	%xmm5, (%rbx)
	movdqa	-96(%rbp), %xmm5
	movq	-224(%rbp), %rbx
	movups	%xmm5, (%r11)
	movups	%xmm14, (%r10)
	movups	%xmm0, (%r9)
	movups	%xmm2, (%r8)
	movups	%xmm6, (%rdi)
	movups	%xmm4, (%rsi)
	movups	%xmm1, (%rcx)
	movq	-216(%rbp), %rcx
	movups	%xmm8, (%rcx)
	movups	%xmm7, (%rbx)
	movups	%xmm3, (%rax)
	addq	$224, %rsp
	popq	%rbx
	popq	%r12
	popq	%r13
	popq	%r14
	popq	%r15
	popq	%rbp
	.cfi_remember_state
	.cfi_def_cfa 7, 8
	ret
	.p2align 4,,10
	.p2align 3
.L77:
	.cfi_restore_state
	movdqa	-160(%rbp), %xmm3
	movdqa	-176(%rbp), %xmm7
	movdqa	%xmm13, %xmm8
	jmp	.L75
	.cfi_endproc
.LFE18782:
	.size	_ZN3hwy6N_SSE26detail14SortingNetworkINS1_12SharedTraitsINS1_10TraitsLaneINS1_14OrderAscendingIlEEEEEElEEvT_PT0_m.isra.0, .-_ZN3hwy6N_SSE26detail14SortingNetworkINS1_12SharedTraitsINS1_10TraitsLaneINS1_14OrderAscendingIlEEEEEElEEvT_PT0_m.isra.0
	.section	.text._ZN3hwy11N_AVX3_ZEN46detail22MaybePartitionTwoValueINS0_4SimdIlLm8ELi0EEENS1_12SharedTraitsINS1_10TraitsLaneINS1_14OrderAscendingIlEEEEEElEEbT_T0_PT1_mDTcl4ZerocvSB__EEESF_RSF_SE_.isra.0,"ax",@progbits
	.p2align 4
	.type	_ZN3hwy11N_AVX3_ZEN46detail22MaybePartitionTwoValueINS0_4SimdIlLm8ELi0EEENS1_12SharedTraitsINS1_10TraitsLaneINS1_14OrderAscendingIlEEEEEElEEbT_T0_PT1_mDTcl4ZerocvSB__EEESF_RSF_SE_.isra.0, @function
_ZN3hwy11N_AVX3_ZEN46detail22MaybePartitionTwoValueINS0_4SimdIlLm8ELi0EEENS1_12SharedTraitsINS1_10TraitsLaneINS1_14OrderAscendingIlEEEEEElEEbT_T0_PT1_mDTcl4ZerocvSB__EEESF_RSF_SE_.isra.0:
.LFB18783:
	.cfi_startproc
	pushq	%rbp
	.cfi_def_cfa_offset 16
	.cfi_offset 6, -16
	movq	%rsi, %r10
	movq	%rsp, %rbp
	.cfi_def_cfa_register 6
	pushq	%rbx
	.cfi_offset 3, -24
	cmpq	$7, %rsi
	jbe	.L94
	movl	$8, %r8d
	xorl	%esi, %esi
	jmp	.L85
	.p2align 4,,10
	.p2align 3
.L80:
	vmovdqu64	%zmm0, (%rax)
	kmovb	%k0, %eax
	popcntq	%rax, %rax
	addq	%rax, %rsi
	leaq	8(%r8), %rax
	cmpq	%r10, %rax
	ja	.L105
	movq	%rax, %r8
.L85:
	vmovdqu64	-64(%rdi,%r8,8), %zmm3
	leaq	-8(%r8), %r9
	leaq	(%rdi,%rsi,8), %rax
	vpcmpq	$0, %zmm0, %zmm3, %k0
	vpcmpq	$0, %zmm1, %zmm3, %k1
	kmovb	%k0, %r11d
	kmovb	%k1, %ebx
	korb	%k1, %k0, %k1
	kortestb	%k1, %k1
	jc	.L80
	kmovb	%r11d, %k6
	kmovb	%ebx, %k5
	kxnorb	%k5, %k6, %k7
	kmovb	%k7, %eax
	tzcntl	%eax, %eax
	addq	%r9, %rax
	vpbroadcastq	(%rdi,%rax,8), %zmm0
	leaq	8(%rsi), %rax
	vmovdqa64	%zmm0, (%rdx)
	cmpq	%r9, %rax
	ja	.L81
	.p2align 4,,10
	.p2align 3
.L82:
	vmovdqu64	%zmm1, -64(%rdi,%rax,8)
	movq	%rax, %rsi
	addq	$8, %rax
	cmpq	%rax, %r9
	jnb	.L82
.L81:
	subq	%rsi, %r9
	leaq	(%rdi,%rsi,8), %rdx
	movl	$255, %eax
	cmpq	$255, %r9
	jbe	.L106
.L83:
	kmovb	%eax, %k4
	xorl	%eax, %eax
	vmovdqu64	%zmm1, (%rdx){%k4}
.L78:
	movq	-8(%rbp), %rbx
	leave
	.cfi_remember_state
	.cfi_def_cfa 7, 8
	ret
	.p2align 4,,10
	.p2align 3
.L106:
	.cfi_restore_state
	movq	$-1, %rax
	bzhi	%r9, %rax, %rax
	movzbl	%al, %eax
	jmp	.L83
	.p2align 4,,10
	.p2align 3
.L105:
	movq	%r10, %r11
	leaq	(%rdi,%r8,8), %rbx
	leaq	(%rdi,%rsi,8), %r9
	movl	$255, %eax
	subq	%r8, %r11
	kmovd	%eax, %k1
	cmpq	$255, %r11
	jbe	.L79
.L86:
	vmovdqu64	(%rbx), %zmm2{%k1}{z}
	knotb	%k1, %k3
	vmovdqu64	%zmm2, (%rcx){%k1}
	vmovdqa64	(%rcx), %zmm2
	vpcmpq	$0, %zmm0, %zmm2, %k0
	vpcmpq	$0, %zmm1, %zmm2, %k2
	kandb	%k1, %k0, %k0
	korb	%k2, %k0, %k2
	korb	%k3, %k2, %k2
	kortestb	%k2, %k2
	jnc	.L107
	kmovb	%k0, %edx
	popcntq	%rdx, %rdx
	addq	%rsi, %rdx
	vmovdqu64	%zmm0, (%r9){%k1}
	leaq	8(%rdx), %rax
	cmpq	%r10, %rax
	ja	.L91
	.p2align 4,,10
	.p2align 3
.L92:
	vmovdqu64	%zmm1, -64(%rdi,%rax,8)
	movq	%rax, %rdx
	addq	$8, %rax
	cmpq	%rax, %r10
	jnb	.L92
.L91:
	subq	%rdx, %r10
	leaq	(%rdi,%rdx,8), %rcx
	movl	$255, %eax
	cmpq	$255, %r10
	ja	.L93
	movq	$-1, %rax
	bzhi	%r10, %rax, %rax
	movzbl	%al, %eax
.L93:
	kmovb	%eax, %k5
	movl	$1, %eax
	vmovdqu64	%zmm1, (%rcx){%k5}
	movq	-8(%rbp), %rbx
	leave
	.cfi_remember_state
	.cfi_def_cfa 7, 8
	ret
.L94:
	.cfi_restore_state
	movq	%rsi, %r11
	movq	%rdi, %r9
	movq	%rdi, %rbx
	xorl	%r8d, %r8d
	xorl	%esi, %esi
.L79:
	movq	$-1, %rax
	bzhi	%r11, %rax, %rax
	movzbl	%al, %eax
	kmovd	%eax, %k1
	jmp	.L86
.L107:
	knotb	%k2, %k3
	kmovb	%k3, %eax
	tzcntl	%eax, %eax
	addq	%r8, %rax
	vpbroadcastq	(%rdi,%rax,8), %zmm0
	leaq	8(%rsi), %rax
	vmovdqa64	%zmm0, (%rdx)
	cmpq	%r8, %rax
	ja	.L88
	.p2align 4,,10
	.p2align 3
.L89:
	vmovdqu64	%zmm1, -64(%rdi,%rax,8)
	movq	%rax, %rsi
	leaq	8(%rax), %rax
	cmpq	%rax, %r8
	jnb	.L89
	leaq	(%rdi,%rsi,8), %r9
.L88:
	subq	%rsi, %r8
	movl	$255, %eax
	cmpq	$255, %r8
	ja	.L90
	movq	$-1, %rax
	bzhi	%r8, %rax, %rax
	movzbl	%al, %eax
.L90:
	kmovb	%eax, %k6
	xorl	%eax, %eax
	vmovdqu64	%zmm1, (%r9){%k6}
	jmp	.L78
	.cfi_endproc
.LFE18783:
	.size	_ZN3hwy11N_AVX3_ZEN46detail22MaybePartitionTwoValueINS0_4SimdIlLm8ELi0EEENS1_12SharedTraitsINS1_10TraitsLaneINS1_14OrderAscendingIlEEEEEElEEbT_T0_PT1_mDTcl4ZerocvSB__EEESF_RSF_SE_.isra.0, .-_ZN3hwy11N_AVX3_ZEN46detail22MaybePartitionTwoValueINS0_4SimdIlLm8ELi0EEENS1_12SharedTraitsINS1_10TraitsLaneINS1_14OrderAscendingIlEEEEEElEEbT_T0_PT1_mDTcl4ZerocvSB__EEESF_RSF_SE_.isra.0
	.section	.text._ZN3hwy11N_AVX3_ZEN46detail8SiftDownINS1_12SharedTraitsINS1_10TraitsLaneINS1_14OrderAscendingIlEEEEEElEEvT_PT0_mm.isra.0,"ax",@progbits
	.p2align 4
	.type	_ZN3hwy11N_AVX3_ZEN46detail8SiftDownINS1_12SharedTraitsINS1_10TraitsLaneINS1_14OrderAscendingIlEEEEEElEEvT_PT0_mm.isra.0, @function
_ZN3hwy11N_AVX3_ZEN46detail8SiftDownINS1_12SharedTraitsINS1_10TraitsLaneINS1_14OrderAscendingIlEEEEEElEEvT_PT0_mm.isra.0:
.LFB18784:
	.cfi_startproc
	movq	%rsi, %r8
	movq	%rdx, %rcx
	cmpq	%rdx, %rsi
	jbe	.L118
	leaq	(%rdx,%rdx), %rdx
	leaq	1(%rcx), %r9
	leaq	1(%rdx), %rsi
	addq	$2, %rdx
	cmpq	%rsi, %r8
	jbe	.L118
	movq	(%rdi,%rcx,8), %r11
	vpbroadcastq	%r11, %xmm1
	jmp	.L111
	.p2align 4,,10
	.p2align 3
.L121:
	movq	%rsi, %rax
	cmpq	%rdx, %r8
	ja	.L119
.L113:
	cmpq	%rcx, %rax
	je	.L118
	leaq	(%rdi,%rax,8), %rdx
	movq	(%rdx), %rcx
	movq	%rcx, (%r10)
	movq	%r11, (%rdx)
	cmpq	%rax, %r8
	jbe	.L120
	leaq	(%rax,%rax), %rdx
	leaq	1(%rax), %r9
	leaq	1(%rdx), %rsi
	addq	$2, %rdx
	cmpq	%r8, %rsi
	jnb	.L118
	movq	%rax, %rcx
.L111:
	vpbroadcastq	(%rdi,%rsi,8), %xmm0
	leaq	(%rdi,%rcx,8), %r10
	vpcmpq	$6, %xmm1, %xmm0, %k0
	kmovb	%k0, %eax
	testb	$1, %al
	jne	.L121
	cmpq	%rdx, %r8
	jbe	.L118
	salq	$4, %r9
	vpbroadcastq	(%rdi,%r9), %xmm0
	vpcmpq	$6, %xmm1, %xmm0, %k1
	kmovb	%k1, %eax
	testb	$1, %al
	je	.L118
	movq	%rdx, %rax
	jmp	.L113
	.p2align 4,,10
	.p2align 3
.L118:
	ret
	.p2align 4,,10
	.p2align 3
.L119:
	salq	$4, %r9
	vpbroadcastq	(%rdi,%r9), %xmm2
	vpcmpq	$6, %xmm0, %xmm2, %k2
	kmovb	%k2, %esi
	andl	$1, %esi
	cmovne	%rdx, %rax
	jmp	.L113
	.p2align 4,,10
	.p2align 3
.L120:
	ret
	.cfi_endproc
.LFE18784:
	.size	_ZN3hwy11N_AVX3_ZEN46detail8SiftDownINS1_12SharedTraitsINS1_10TraitsLaneINS1_14OrderAscendingIlEEEEEElEEvT_PT0_mm.isra.0, .-_ZN3hwy11N_AVX3_ZEN46detail8SiftDownINS1_12SharedTraitsINS1_10TraitsLaneINS1_14OrderAscendingIlEEEEEElEEvT_PT0_mm.isra.0
	.section	.text._ZN3hwy11N_AVX3_ZEN46detail14SortingNetworkINS1_12SharedTraitsINS1_10TraitsLaneINS1_14OrderAscendingIlEEEEEElEEvT_PT0_m.isra.0,"ax",@progbits
	.p2align 4
	.type	_ZN3hwy11N_AVX3_ZEN46detail14SortingNetworkINS1_12SharedTraitsINS1_10TraitsLaneINS1_14OrderAscendingIlEEEEEElEEvT_PT0_m.isra.0, @function
_ZN3hwy11N_AVX3_ZEN46detail14SortingNetworkINS1_12SharedTraitsINS1_10TraitsLaneINS1_14OrderAscendingIlEEEEEElEEvT_PT0_m.isra.0:
.LFB18785:
	.cfi_startproc
	pushq	%rbp
	.cfi_def_cfa_offset 16
	.cfi_offset 6, -16
	movq	%rsp, %rbp
	.cfi_def_cfa_register 6
	pushq	%r15
	.cfi_offset 15, -24
	leaq	0(,%rsi,8), %r15
	leaq	(%rdi,%r15), %rdx
	pushq	%r14
	.cfi_offset 14, -32
	leaq	(%rdx,%r15), %r14
	pushq	%r13
	vmovq	%rdx, %xmm18
	.cfi_offset 13, -40
	leaq	(%r14,%r15), %r13
	pushq	%r12
	.cfi_offset 12, -48
	leaq	0(%r13,%r15), %r12
	pushq	%rbx
	.cfi_offset 3, -56
	leaq	(%r12,%r15), %rbx
	leaq	(%rbx,%r15), %r11
	leaq	(%r11,%r15), %r10
	andq	$-64, %rsp
	leaq	(%r10,%r15), %r9
	movq	%rsi, -8(%rsp)
	leaq	(%r9,%r15), %r8
	vmovdqu64	(%rdi), %zmm4
	vmovdqu64	(%r9), %zmm5
	leaq	(%r8,%r15), %rdx
	vpminsq	(%r8), %zmm5, %zmm8
	vmovdqu64	(%r11), %zmm1
	leaq	(%rdx,%r15), %rsi
	vmovq	%rdx, %xmm23
	vpmaxsq	(%r8), %zmm5, %zmm6
	leaq	(%rsi,%r15), %rcx
	leaq	(%rcx,%r15), %rdx
	leaq	(%rdx,%r15), %rax
	addq	%rax, %r15
	movq	%r15, -16(%rsp)
	vmovq	%xmm18, %r15
	vpminsq	(%r15), %zmm4, %zmm13
	vpmaxsq	(%r15), %zmm4, %zmm7
	vmovq	%xmm23, %r15
	vmovdqu64	(%r14), %zmm4
	vmovdqu64	(%r15), %zmm5
	vpminsq	0(%r13), %zmm4, %zmm14
	vpmaxsq	0(%r13), %zmm4, %zmm3
	vpminsq	(%rsi), %zmm5, %zmm9
	vpmaxsq	(%rsi), %zmm5, %zmm15
	vmovdqu64	(%r12), %zmm4
	vmovdqu64	(%rcx), %zmm5
	vpminsq	%zmm14, %zmm13, %zmm10
	vpmaxsq	%zmm14, %zmm13, %zmm13
	vpminsq	(%rbx), %zmm4, %zmm12
	vpmaxsq	(%rbx), %zmm4, %zmm2
	vpminsq	(%rdx), %zmm5, %zmm0
	vpminsq	(%r10), %zmm1, %zmm4
	vpmaxsq	(%rdx), %zmm5, %zmm16
	vpmaxsq	(%r10), %zmm1, %zmm1
	vmovdqu64	(%rax), %zmm5
	movq	-16(%rsp), %r15
	vpminsq	%zmm3, %zmm7, %zmm14
	vpmaxsq	%zmm3, %zmm7, %zmm7
	vpminsq	%zmm4, %zmm12, %zmm3
	vpmaxsq	%zmm4, %zmm12, %zmm12
	cmpq	$1, -8(%rsp)
	vpminsq	(%r15), %zmm5, %zmm11
	vpmaxsq	(%r15), %zmm5, %zmm5
	vpminsq	%zmm1, %zmm2, %zmm4
	vpmaxsq	%zmm1, %zmm2, %zmm2
	vpminsq	%zmm9, %zmm8, %zmm1
	vpmaxsq	%zmm9, %zmm8, %zmm8
	vpminsq	%zmm15, %zmm6, %zmm9
	vpmaxsq	%zmm15, %zmm6, %zmm6
	vpminsq	%zmm11, %zmm0, %zmm15
	vpmaxsq	%zmm11, %zmm0, %zmm0
	vpminsq	%zmm5, %zmm16, %zmm11
	vpmaxsq	%zmm5, %zmm16, %zmm16
	vpminsq	%zmm3, %zmm10, %zmm5
	vpmaxsq	%zmm3, %zmm10, %zmm10
	vpminsq	%zmm4, %zmm14, %zmm3
	vpmaxsq	%zmm4, %zmm14, %zmm14
	vpminsq	%zmm12, %zmm13, %zmm4
	vpmaxsq	%zmm12, %zmm13, %zmm13
	vpminsq	%zmm2, %zmm7, %zmm12
	vpmaxsq	%zmm2, %zmm7, %zmm7
	vpminsq	%zmm15, %zmm1, %zmm2
	vpmaxsq	%zmm15, %zmm1, %zmm1
	vpminsq	%zmm11, %zmm9, %zmm15
	vpmaxsq	%zmm11, %zmm9, %zmm9
	vpminsq	%zmm0, %zmm8, %zmm11
	vpmaxsq	%zmm0, %zmm8, %zmm8
	vpminsq	%zmm16, %zmm6, %zmm0
	vpmaxsq	%zmm16, %zmm6, %zmm6
	vpminsq	%zmm2, %zmm5, %zmm17
	vpmaxsq	%zmm2, %zmm5, %zmm5
	vpminsq	%zmm15, %zmm3, %zmm2
	vpmaxsq	%zmm15, %zmm3, %zmm3
	vpminsq	%zmm11, %zmm4, %zmm15
	vpmaxsq	%zmm11, %zmm4, %zmm4
	vpminsq	%zmm0, %zmm12, %zmm11
	vpmaxsq	%zmm0, %zmm12, %zmm12
	vpminsq	%zmm1, %zmm10, %zmm0
	vpmaxsq	%zmm1, %zmm10, %zmm10
	vpminsq	%zmm9, %zmm14, %zmm1
	vpmaxsq	%zmm9, %zmm14, %zmm14
	vpminsq	%zmm8, %zmm13, %zmm9
	vpmaxsq	%zmm8, %zmm13, %zmm13
	vpminsq	%zmm6, %zmm7, %zmm8
	vpmaxsq	%zmm6, %zmm7, %zmm7
	vpminsq	%zmm4, %zmm1, %zmm6
	vpmaxsq	%zmm4, %zmm1, %zmm1
	vpminsq	%zmm3, %zmm9, %zmm4
	vpmaxsq	%zmm3, %zmm9, %zmm9
	vpminsq	%zmm10, %zmm11, %zmm3
	vpmaxsq	%zmm10, %zmm11, %zmm11
	vpminsq	%zmm12, %zmm8, %zmm10
	vpmaxsq	%zmm12, %zmm8, %zmm8
	vpminsq	%zmm13, %zmm14, %zmm12
	vpmaxsq	%zmm13, %zmm14, %zmm14
	vpminsq	%zmm5, %zmm0, %zmm13
	vpmaxsq	%zmm5, %zmm0, %zmm0
	vpminsq	%zmm15, %zmm2, %zmm5
	vpmaxsq	%zmm15, %zmm2, %zmm2
	vpminsq	%zmm13, %zmm5, %zmm16
	vpmaxsq	%zmm13, %zmm5, %zmm5
	vpminsq	%zmm12, %zmm10, %zmm13
	vpmaxsq	%zmm12, %zmm10, %zmm10
	vpminsq	%zmm0, %zmm2, %zmm12
	vpmaxsq	%zmm0, %zmm2, %zmm2
	vpminsq	%zmm14, %zmm8, %zmm0
	vpminsq	%zmm5, %zmm12, %zmm15
	vpmaxsq	%zmm5, %zmm12, %zmm12
	vpminsq	%zmm4, %zmm6, %zmm5
	vpmaxsq	%zmm4, %zmm6, %zmm6
	vpminsq	%zmm1, %zmm9, %zmm4
	vpmaxsq	%zmm1, %zmm9, %zmm9
	vpminsq	%zmm10, %zmm0, %zmm1
	vpmaxsq	%zmm10, %zmm0, %zmm0
	vpminsq	%zmm2, %zmm3, %zmm10
	vpmaxsq	%zmm2, %zmm3, %zmm3
	vpminsq	%zmm11, %zmm13, %zmm2
	vpmaxsq	%zmm11, %zmm13, %zmm13
	vpminsq	%zmm5, %zmm10, %zmm11
	vpmaxsq	%zmm5, %zmm10, %zmm10
	vpminsq	%zmm3, %zmm6, %zmm5
	vpmaxsq	%zmm3, %zmm6, %zmm6
	vpminsq	%zmm4, %zmm2, %zmm3
	vpmaxsq	%zmm4, %zmm2, %zmm2
	vpminsq	%zmm13, %zmm9, %zmm4
	vpmaxsq	%zmm13, %zmm9, %zmm9
	vpminsq	%zmm5, %zmm10, %zmm13
	vpmaxsq	%zmm5, %zmm10, %zmm10
	vpminsq	%zmm6, %zmm3, %zmm5
	vpmaxsq	%zmm6, %zmm3, %zmm3
	vpminsq	%zmm4, %zmm2, %zmm6
	vpmaxsq	%zmm14, %zmm8, %zmm8
	vpmaxsq	%zmm4, %zmm2, %zmm2
	vpminsq	%zmm12, %zmm11, %zmm14
	vpminsq	%zmm9, %zmm1, %zmm4
	vpmaxsq	%zmm12, %zmm11, %zmm11
	vpmaxsq	%zmm9, %zmm1, %zmm1
	vpminsq	%zmm5, %zmm10, %zmm12
	vpmaxsq	%zmm5, %zmm10, %zmm10
	vpminsq	%zmm6, %zmm3, %zmm5
	vpmaxsq	%zmm6, %zmm3, %zmm3
	jbe	.L123
	vpshufd	$78, %zmm0, %zmm6
	vpshufd	$78, %zmm7, %zmm7
	vpshufd	$78, %zmm5, %zmm5
	movl	$85, %r15d
	vpshufd	$78, %zmm3, %zmm3
	vpshufd	$78, %zmm2, %zmm2
	vpshufd	$78, %zmm4, %zmm4
	kmovb	%r15d, %k1
	vpshufd	$78, %zmm1, %zmm1
	vpshufd	$78, %zmm8, %zmm8
	vpminsq	%zmm7, %zmm17, %zmm0
	cmpq	$3, -8(%rsp)
	vpmaxsq	%zmm7, %zmm17, %zmm9
	vpminsq	%zmm8, %zmm16, %zmm17
	vpminsq	%zmm2, %zmm13, %zmm7
	vpmaxsq	%zmm8, %zmm16, %zmm8
	vpshufd	$78, %zmm9, %zmm9
	vpminsq	%zmm6, %zmm15, %zmm16
	vpmaxsq	%zmm6, %zmm15, %zmm6
	vpshufd	$78, %zmm8, %zmm8
	vpminsq	%zmm1, %zmm14, %zmm15
	vpmaxsq	%zmm1, %zmm14, %zmm1
	vpshufd	$78, %zmm7, %zmm7
	vpminsq	%zmm4, %zmm11, %zmm14
	vpmaxsq	%zmm4, %zmm11, %zmm4
	vpshufd	$78, %zmm1, %zmm1
	vpminsq	%zmm3, %zmm12, %zmm11
	vpmaxsq	%zmm3, %zmm12, %zmm3
	vpshufd	$78, %zmm14, %zmm14
	vpminsq	%zmm5, %zmm10, %zmm12
	vpmaxsq	%zmm5, %zmm10, %zmm5
	vpshufd	$78, %zmm11, %zmm10
	vpshufd	$78, %zmm12, %zmm12
	vpmaxsq	%zmm2, %zmm13, %zmm2
	vpmaxsq	%zmm9, %zmm5, %zmm19
	vpminsq	%zmm12, %zmm0, %zmm11
	vpmaxsq	%zmm12, %zmm0, %zmm13
	vpshufd	$78, %zmm6, %zmm6
	vpminsq	%zmm9, %zmm5, %zmm0
	vpminsq	%zmm14, %zmm15, %zmm12
	vpminsq	%zmm8, %zmm3, %zmm9
	vpminsq	%zmm10, %zmm17, %zmm5
	vpshufd	$78, %zmm12, %zmm12
	vpmaxsq	%zmm10, %zmm17, %zmm10
	vpmaxsq	%zmm8, %zmm3, %zmm17
	vpminsq	%zmm7, %zmm16, %zmm3
	vpminsq	%zmm6, %zmm2, %zmm8
	vpshufd	$78, %zmm10, %zmm10
	vpmaxsq	%zmm6, %zmm2, %zmm6
	vpmaxsq	%zmm14, %zmm15, %zmm14
	vpshufd	$78, %zmm3, %zmm2
	vpminsq	%zmm1, %zmm4, %zmm15
	vpshufd	$78, %zmm17, %zmm3
	vpmaxsq	%zmm1, %zmm4, %zmm4
	vpmaxsq	%zmm12, %zmm11, %zmm17
	vpmaxsq	%zmm7, %zmm16, %zmm7
	vpshufd	$78, %zmm8, %zmm1
	vpshufd	$78, %zmm13, %zmm16
	vpshufd	$78, %zmm15, %zmm8
	vpminsq	%zmm12, %zmm11, %zmm13
	vpshufd	$78, %zmm19, %zmm15
	vpminsq	%zmm2, %zmm5, %zmm11
	vpminsq	%zmm16, %zmm14, %zmm12
	vpminsq	%zmm8, %zmm0, %zmm19
	vpmaxsq	%zmm16, %zmm14, %zmm14
	vpshufd	$78, %zmm11, %zmm11
	vpmaxsq	%zmm8, %zmm0, %zmm16
	vpminsq	%zmm1, %zmm9, %zmm0
	vpminsq	%zmm15, %zmm4, %zmm8
	vpmaxsq	%zmm15, %zmm4, %zmm15
	vpshufd	$78, %zmm0, %zmm4
	vpmaxsq	%zmm2, %zmm5, %zmm5
	vpshufd	$78, %zmm16, %zmm0
	vpminsq	%zmm10, %zmm7, %zmm2
	vpshufd	$78, %zmm15, %zmm16
	vpmaxsq	%zmm10, %zmm7, %zmm7
	vpminsq	%zmm11, %zmm13, %zmm15
	vpshufd	$78, %zmm17, %zmm10
	vpmaxsq	%zmm1, %zmm9, %zmm1
	vpminsq	%zmm3, %zmm6, %zmm9
	vpmaxsq	%zmm3, %zmm6, %zmm6
	vpshufd	$78, %zmm14, %zmm3
	vpmaxsq	%zmm11, %zmm13, %zmm14
	vpminsq	%zmm10, %zmm5, %zmm11
	vpmaxsq	%zmm10, %zmm5, %zmm5
	vpshufd	$78, %zmm15, %zmm10
	vpmaxsq	%zmm10, %zmm15, %zmm17
	vpshufd	$78, %zmm2, %zmm2
	vpshufd	$78, %zmm9, %zmm9
	vpminsq	%zmm10, %zmm15, %zmm17{%k1}
	vpshufd	$78, %zmm14, %zmm10
	vpminsq	%zmm2, %zmm12, %zmm13
	vpmaxsq	%zmm2, %zmm12, %zmm12
	vpminsq	%zmm3, %zmm7, %zmm2
	vpmaxsq	%zmm3, %zmm7, %zmm7
	vpminsq	%zmm4, %zmm19, %zmm3
	vpmaxsq	%zmm4, %zmm19, %zmm19
	vpminsq	%zmm0, %zmm1, %zmm4
	vpmaxsq	%zmm0, %zmm1, %zmm1
	vpminsq	%zmm9, %zmm8, %zmm0
	vpmaxsq	%zmm9, %zmm8, %zmm8
	vpminsq	%zmm16, %zmm6, %zmm9
	vpmaxsq	%zmm16, %zmm6, %zmm6
	vpmaxsq	%zmm10, %zmm14, %zmm16
	vpminsq	%zmm10, %zmm14, %zmm16{%k1}
	vpshufd	$78, %zmm11, %zmm10
	vpmaxsq	%zmm10, %zmm11, %zmm15
	vpminsq	%zmm10, %zmm11, %zmm15{%k1}
	vpshufd	$78, %zmm5, %zmm10
	vpmaxsq	%zmm10, %zmm5, %zmm14
	vpminsq	%zmm10, %zmm5, %zmm14{%k1}
	vpshufd	$78, %zmm13, %zmm5
	vpmaxsq	%zmm5, %zmm13, %zmm11
	vpminsq	%zmm5, %zmm13, %zmm11{%k1}
	vpshufd	$78, %zmm12, %zmm5
	vpmaxsq	%zmm5, %zmm12, %zmm13
	vpminsq	%zmm5, %zmm12, %zmm13{%k1}
	vpshufd	$78, %zmm2, %zmm5
	vpmaxsq	%zmm5, %zmm2, %zmm12
	vpminsq	%zmm5, %zmm2, %zmm12{%k1}
	vpshufd	$78, %zmm7, %zmm2
	vpmaxsq	%zmm2, %zmm7, %zmm10
	vpminsq	%zmm2, %zmm7, %zmm10{%k1}
	vpshufd	$78, %zmm3, %zmm2
	vpshufd	$78, %zmm4, %zmm7
	vpmaxsq	%zmm2, %zmm3, %zmm5
	vpminsq	%zmm2, %zmm3, %zmm5{%k1}
	vpshufd	$78, %zmm19, %zmm2
	vpmaxsq	%zmm2, %zmm19, %zmm3
	vpminsq	%zmm2, %zmm19, %zmm3{%k1}
	vpmaxsq	%zmm7, %zmm4, %zmm2
	vpminsq	%zmm7, %zmm4, %zmm2{%k1}
	vpshufd	$78, %zmm1, %zmm7
	vpmaxsq	%zmm7, %zmm1, %zmm4
	vpminsq	%zmm7, %zmm1, %zmm4{%k1}
	vpshufd	$78, %zmm0, %zmm7
	vpmaxsq	%zmm7, %zmm0, %zmm1
	vpminsq	%zmm7, %zmm0, %zmm1{%k1}
	vpshufd	$78, %zmm8, %zmm7
	vpmaxsq	%zmm7, %zmm8, %zmm0
	vpminsq	%zmm7, %zmm8, %zmm0{%k1}
	vpshufd	$78, %zmm9, %zmm7
	vpmaxsq	%zmm7, %zmm9, %zmm8
	vpminsq	%zmm7, %zmm9, %zmm8{%k1}
	vpshufd	$78, %zmm6, %zmm9
	vpmaxsq	%zmm9, %zmm6, %zmm7
	vpminsq	%zmm9, %zmm6, %zmm7{%k1}
	jbe	.L123
	vpermq	$27, %zmm5, %zmm5
	vpermq	$27, %zmm3, %zmm3
	vpermq	$27, %zmm2, %zmm2
	movl	$51, %r15d
	vpermq	$27, %zmm4, %zmm4
	vpermq	$27, %zmm1, %zmm1
	kmovb	%r15d, %k2
	vpermq	$27, %zmm0, %zmm0
	vpermq	$27, %zmm8, %zmm8
	vpermq	$27, %zmm7, %zmm7
	vpminsq	%zmm2, %zmm13, %zmm6
	cmpq	$7, -8(%rsp)
	vpminsq	%zmm7, %zmm17, %zmm9
	vpmaxsq	%zmm7, %zmm17, %zmm7
	vpermq	$27, %zmm6, %zmm6
	vpminsq	%zmm8, %zmm16, %zmm17
	vpmaxsq	%zmm8, %zmm16, %zmm8
	vpermq	$27, %zmm7, %zmm7
	vpminsq	%zmm0, %zmm15, %zmm16
	vpmaxsq	%zmm0, %zmm15, %zmm0
	vpermq	$27, %zmm8, %zmm8
	vpminsq	%zmm1, %zmm14, %zmm15
	vpmaxsq	%zmm1, %zmm14, %zmm1
	vpermq	$27, %zmm0, %zmm0
	vpminsq	%zmm4, %zmm11, %zmm14
	vpmaxsq	%zmm4, %zmm11, %zmm4
	vpermq	$27, %zmm1, %zmm1
	vpminsq	%zmm3, %zmm12, %zmm11
	vpmaxsq	%zmm3, %zmm12, %zmm3
	vpermq	$27, %zmm14, %zmm14
	vpminsq	%zmm5, %zmm10, %zmm12
	vpmaxsq	%zmm5, %zmm10, %zmm5
	vpermq	$27, %zmm11, %zmm10
	vpermq	$27, %zmm12, %zmm12
	vpminsq	%zmm7, %zmm5, %zmm11
	vpmaxsq	%zmm2, %zmm13, %zmm2
	vpminsq	%zmm12, %zmm9, %zmm19
	vpmaxsq	%zmm12, %zmm9, %zmm13
	vpmaxsq	%zmm7, %zmm5, %zmm20
	vpminsq	%zmm8, %zmm3, %zmm9
	vpminsq	%zmm10, %zmm17, %zmm5
	vpmaxsq	%zmm10, %zmm17, %zmm10
	vpmaxsq	%zmm8, %zmm3, %zmm17
	vpminsq	%zmm6, %zmm16, %zmm3
	vpermq	$27, %zmm10, %zmm10
	vpminsq	%zmm14, %zmm15, %zmm8
	vpminsq	%zmm0, %zmm2, %zmm7
	vpmaxsq	%zmm14, %zmm15, %zmm14
	vpmaxsq	%zmm0, %zmm2, %zmm0
	vpermq	$27, %zmm3, %zmm2
	vpminsq	%zmm1, %zmm4, %zmm15
	vpmaxsq	%zmm1, %zmm4, %zmm12
	vpermq	$27, %zmm8, %zmm3
	vpmaxsq	%zmm6, %zmm16, %zmm6
	vpermq	$27, %zmm13, %zmm1
	vpermq	$27, %zmm15, %zmm16
	vpermq	$27, %zmm17, %zmm8
	vpminsq	%zmm2, %zmm5, %zmm17
	vpminsq	%zmm3, %zmm19, %zmm13
	vpminsq	%zmm16, %zmm11, %zmm4
	vpermq	$27, %zmm7, %zmm7
	vpermq	$27, %zmm20, %zmm15
	vpmaxsq	%zmm3, %zmm19, %zmm19
	vpmaxsq	%zmm16, %zmm11, %zmm20
	vpermq	$27, %zmm17, %zmm11
	vpmaxsq	%zmm2, %zmm5, %zmm3
	vpminsq	%zmm1, %zmm14, %zmm5
	vpmaxsq	%zmm1, %zmm14, %zmm14
	vpminsq	%zmm7, %zmm9, %zmm16
	vpmaxsq	%zmm10, %zmm6, %zmm1
	vpminsq	%zmm10, %zmm6, %zmm2
	vpermq	$27, %zmm19, %zmm10
	vpermq	$27, %zmm14, %zmm6
	vpmaxsq	%zmm7, %zmm9, %zmm9
	vpminsq	%zmm11, %zmm13, %zmm14
	vpminsq	%zmm15, %zmm12, %zmm7
	vpmaxsq	%zmm15, %zmm12, %zmm15
	vpermq	$27, %zmm16, %zmm17
	vpminsq	%zmm8, %zmm0, %zmm12
	vpmaxsq	%zmm11, %zmm13, %zmm13
	vpermq	$27, %zmm2, %zmm2
	vpminsq	%zmm10, %zmm3, %zmm11
	vpermq	$27, %zmm12, %zmm16
	vpmaxsq	%zmm10, %zmm3, %zmm3
	vpmaxsq	%zmm8, %zmm0, %zmm0
	vpermq	$27, %zmm14, %zmm10
	vpermq	$27, %zmm20, %zmm8
	vpminsq	%zmm17, %zmm4, %zmm19
	vpmaxsq	%zmm17, %zmm4, %zmm4
	vpermq	$27, %zmm15, %zmm15
	vpminsq	%zmm8, %zmm9, %zmm17
	vpmaxsq	%zmm8, %zmm9, %zmm9
	vpminsq	%zmm16, %zmm7, %zmm8
	vpmaxsq	%zmm16, %zmm7, %zmm7
	vpmaxsq	%zmm10, %zmm14, %zmm16
	vpminsq	%zmm2, %zmm5, %zmm12
	vpminsq	%zmm10, %zmm14, %zmm16{%k2}
	vpermq	$27, %zmm13, %zmm10
	vpmaxsq	%zmm2, %zmm5, %zmm5
	vpminsq	%zmm6, %zmm1, %zmm2
	vpmaxsq	%zmm6, %zmm1, %zmm1
	vpminsq	%zmm15, %zmm0, %zmm6
	vpmaxsq	%zmm15, %zmm0, %zmm0
	vpmaxsq	%zmm10, %zmm13, %zmm15
	vpminsq	%zmm10, %zmm13, %zmm15{%k2}
	vpermq	$27, %zmm11, %zmm10
	vpmaxsq	%zmm10, %zmm11, %zmm14
	vpminsq	%zmm10, %zmm11, %zmm14{%k2}
	vpermq	$27, %zmm3, %zmm10
	vpmaxsq	%zmm10, %zmm3, %zmm11
	vpminsq	%zmm10, %zmm3, %zmm11{%k2}
	vpermq	$27, %zmm12, %zmm3
	vpmaxsq	%zmm3, %zmm12, %zmm13
	vpminsq	%zmm3, %zmm12, %zmm13{%k2}
	vpermq	$27, %zmm5, %zmm3
	vpmaxsq	%zmm3, %zmm5, %zmm12
	vpminsq	%zmm3, %zmm5, %zmm12{%k2}
	vpermq	$27, %zmm2, %zmm3
	vpmaxsq	%zmm3, %zmm2, %zmm10
	vpminsq	%zmm3, %zmm2, %zmm10{%k2}
	vpermq	$27, %zmm1, %zmm2
	vpmaxsq	%zmm2, %zmm1, %zmm5
	vpminsq	%zmm2, %zmm1, %zmm5{%k2}
	vpermq	$27, %zmm19, %zmm1
	vpmaxsq	%zmm1, %zmm19, %zmm3
	vpminsq	%zmm1, %zmm19, %zmm3{%k2}
	vpermq	$27, %zmm4, %zmm1
	vpmaxsq	%zmm1, %zmm4, %zmm2
	vpminsq	%zmm1, %zmm4, %zmm2{%k2}
	vpermq	$27, %zmm17, %zmm1
	vpmaxsq	%zmm1, %zmm17, %zmm4
	vpminsq	%zmm1, %zmm17, %zmm4{%k2}
	vpermq	$27, %zmm9, %zmm17
	vpmaxsq	%zmm17, %zmm9, %zmm1
	vpminsq	%zmm17, %zmm9, %zmm1{%k2}
	vpermq	$27, %zmm8, %zmm17
	vpmaxsq	%zmm17, %zmm8, %zmm9
	vpminsq	%zmm17, %zmm8, %zmm9{%k2}
	vpermq	$27, %zmm7, %zmm17
	vpmaxsq	%zmm17, %zmm7, %zmm8
	vpminsq	%zmm17, %zmm7, %zmm8{%k2}
	vpermq	$27, %zmm6, %zmm17
	vpmaxsq	%zmm17, %zmm6, %zmm7
	vpminsq	%zmm17, %zmm6, %zmm7{%k2}
	vpermq	$27, %zmm0, %zmm17
	vpmaxsq	%zmm17, %zmm0, %zmm6
	vpminsq	%zmm17, %zmm0, %zmm6{%k2}
	vpshufd	$78, %zmm16, %zmm0
	vpmaxsq	%zmm0, %zmm16, %zmm17
	vpminsq	%zmm0, %zmm16, %zmm17{%k1}
	vpshufd	$78, %zmm15, %zmm0
	vpmaxsq	%zmm0, %zmm15, %zmm16
	vpminsq	%zmm0, %zmm15, %zmm16{%k1}
	vpshufd	$78, %zmm14, %zmm0
	vpmaxsq	%zmm0, %zmm14, %zmm15
	vpminsq	%zmm0, %zmm14, %zmm15{%k1}
	vpshufd	$78, %zmm11, %zmm0
	vpmaxsq	%zmm0, %zmm11, %zmm14
	vpminsq	%zmm0, %zmm11, %zmm14{%k1}
	vpshufd	$78, %zmm13, %zmm0
	vpmaxsq	%zmm0, %zmm13, %zmm11
	vpminsq	%zmm0, %zmm13, %zmm11{%k1}
	vpshufd	$78, %zmm12, %zmm0
	vpmaxsq	%zmm0, %zmm12, %zmm13
	vpminsq	%zmm0, %zmm12, %zmm13{%k1}
	vpshufd	$78, %zmm10, %zmm0
	vpmaxsq	%zmm0, %zmm10, %zmm12
	vpminsq	%zmm0, %zmm10, %zmm12{%k1}
	vpshufd	$78, %zmm5, %zmm0
	vpmaxsq	%zmm0, %zmm5, %zmm10
	vpminsq	%zmm0, %zmm5, %zmm10{%k1}
	vpshufd	$78, %zmm3, %zmm0
	vpmaxsq	%zmm0, %zmm3, %zmm5
	vpminsq	%zmm0, %zmm3, %zmm5{%k1}
	vpshufd	$78, %zmm2, %zmm0
	vpmaxsq	%zmm0, %zmm2, %zmm3
	vpminsq	%zmm0, %zmm2, %zmm3{%k1}
	vpshufd	$78, %zmm4, %zmm0
	vpmaxsq	%zmm0, %zmm4, %zmm2
	vpminsq	%zmm0, %zmm4, %zmm2{%k1}
	vpshufd	$78, %zmm1, %zmm0
	vpmaxsq	%zmm0, %zmm1, %zmm4
	vpminsq	%zmm0, %zmm1, %zmm4{%k1}
	vpshufd	$78, %zmm9, %zmm0
	vpmaxsq	%zmm0, %zmm9, %zmm1
	vpminsq	%zmm0, %zmm9, %zmm1{%k1}
	vpshufd	$78, %zmm8, %zmm9
	vpmaxsq	%zmm9, %zmm8, %zmm0
	vpminsq	%zmm9, %zmm8, %zmm0{%k1}
	vpshufd	$78, %zmm7, %zmm9
	vpmaxsq	%zmm9, %zmm7, %zmm8
	vpminsq	%zmm9, %zmm7, %zmm8{%k1}
	vpshufd	$78, %zmm6, %zmm9
	vpmaxsq	%zmm9, %zmm6, %zmm7
	vpminsq	%zmm9, %zmm6, %zmm7{%k1}
	jbe	.L123
	vmovdqa64	.LC2(%rip), %zmm6
	movl	$65535, %r15d
	kmovd	%r15d, %k3
	vpermq	%zmm7, %zmm6, %zmm7
	vpermq	%zmm5, %zmm6, %zmm5
	vpermq	%zmm3, %zmm6, %zmm3
	vpermq	%zmm2, %zmm6, %zmm2
	vpermq	%zmm4, %zmm6, %zmm4
	vpermq	%zmm1, %zmm6, %zmm1
	vpermq	%zmm0, %zmm6, %zmm0
	vpermq	%zmm8, %zmm6, %zmm8
	vpminsq	%zmm7, %zmm17, %zmm9
	vpmaxsq	%zmm7, %zmm17, %zmm19
	vpminsq	%zmm8, %zmm16, %zmm7
	vpmaxsq	%zmm8, %zmm16, %zmm8
	vpminsq	%zmm0, %zmm15, %zmm16
	vpmaxsq	%zmm0, %zmm15, %zmm0
	vpminsq	%zmm1, %zmm14, %zmm15
	vpermq	%zmm8, %zmm6, %zmm8
	vpmaxsq	%zmm1, %zmm14, %zmm1
	vpminsq	%zmm4, %zmm11, %zmm14
	vpermq	%zmm0, %zmm6, %zmm0
	vpmaxsq	%zmm4, %zmm11, %zmm4
	vpminsq	%zmm2, %zmm13, %zmm11
	vpermq	%zmm14, %zmm6, %zmm14
	vpmaxsq	%zmm2, %zmm13, %zmm2
	vpminsq	%zmm3, %zmm12, %zmm13
	vpermq	%zmm11, %zmm6, %zmm11
	vpmaxsq	%zmm3, %zmm12, %zmm3
	vpminsq	%zmm5, %zmm10, %zmm12
	vpermq	%zmm13, %zmm6, %zmm17
	vpmaxsq	%zmm5, %zmm10, %zmm5
	vpermq	%zmm19, %zmm6, %zmm13
	vpermq	%zmm12, %zmm6, %zmm12
	vpminsq	%zmm12, %zmm9, %zmm10
	vpmaxsq	%zmm12, %zmm9, %zmm19
	vpermq	%zmm1, %zmm6, %zmm1
	vpminsq	%zmm13, %zmm5, %zmm12
	vpmaxsq	%zmm13, %zmm5, %zmm20
	vpminsq	%zmm8, %zmm3, %zmm9
	vpminsq	%zmm17, %zmm7, %zmm13
	vpminsq	%zmm11, %zmm16, %zmm5
	vpmaxsq	%zmm17, %zmm7, %zmm7
	vpmaxsq	%zmm8, %zmm3, %zmm17
	vpmaxsq	%zmm11, %zmm16, %zmm3
	vpermq	%zmm19, %zmm6, %zmm11
	vpminsq	%zmm14, %zmm15, %zmm16
	vpminsq	%zmm0, %zmm2, %zmm8
	vpmaxsq	%zmm14, %zmm15, %zmm14
	vpermq	%zmm16, %zmm6, %zmm16
	vpermq	%zmm5, %zmm6, %zmm15
	vpmaxsq	%zmm0, %zmm2, %zmm0
	vpminsq	%zmm1, %zmm4, %zmm2
	vpermq	%zmm20, %zmm6, %zmm5
	vpminsq	%zmm16, %zmm10, %zmm19
	vpmaxsq	%zmm1, %zmm4, %zmm1
	vpermq	%zmm7, %zmm6, %zmm4
	vpermq	%zmm8, %zmm6, %zmm7
	vpermq	%zmm2, %zmm6, %zmm8
	vpermq	%zmm17, %zmm6, %zmm2
	vpmaxsq	%zmm16, %zmm10, %zmm17
	vpminsq	%zmm15, %zmm13, %zmm16
	vpminsq	%zmm11, %zmm14, %zmm10
	vpmaxsq	%zmm15, %zmm13, %zmm13
	vpmaxsq	%zmm8, %zmm12, %zmm20
	vpmaxsq	%zmm11, %zmm14, %zmm15
	vpermq	%zmm16, %zmm6, %zmm11
	vpminsq	%zmm4, %zmm3, %zmm14
	vpmaxsq	%zmm5, %zmm1, %zmm22
	vpmaxsq	%zmm4, %zmm3, %zmm3
	vpminsq	%zmm2, %zmm0, %zmm21
	vpermq	%zmm22, %zmm6, %zmm16
	vpminsq	%zmm8, %zmm12, %zmm4
	vpminsq	%zmm7, %zmm9, %zmm8
	vpermq	%zmm17, %zmm6, %zmm12
	vpmaxsq	%zmm7, %zmm9, %zmm9
	vpermq	%zmm21, %zmm6, %zmm17
	vpminsq	%zmm5, %zmm1, %zmm7
	vpmaxsq	%zmm2, %zmm0, %zmm0
	vpermq	%zmm14, %zmm6, %zmm5
	vpermq	%zmm15, %zmm6, %zmm2
	vpermq	%zmm8, %zmm6, %zmm1
	vpminsq	%zmm11, %zmm19, %zmm15
	vpermq	%zmm20, %zmm6, %zmm8
	vpmaxsq	%zmm11, %zmm19, %zmm14
	vpminsq	%zmm12, %zmm13, %zmm11
	vpmaxsq	%zmm12, %zmm13, %zmm13
	vpminsq	%zmm5, %zmm10, %zmm12
	vpmaxsq	%zmm5, %zmm10, %zmm10
	vpminsq	%zmm2, %zmm3, %zmm5
	vpmaxsq	%zmm2, %zmm3, %zmm3
	vpminsq	%zmm1, %zmm4, %zmm2
	vpmaxsq	%zmm1, %zmm4, %zmm4
	vpminsq	%zmm8, %zmm9, %zmm1
	vpmaxsq	%zmm8, %zmm9, %zmm9
	vpminsq	%zmm17, %zmm7, %zmm8
	vpmaxsq	%zmm17, %zmm7, %zmm7
	vpminsq	%zmm16, %zmm0, %zmm17
	vpmaxsq	%zmm16, %zmm0, %zmm0
	vpermq	%zmm15, %zmm6, %zmm16
	vpminsq	%zmm16, %zmm15, %zmm19
	vpmaxsq	%zmm16, %zmm15, %zmm15
	vpermq	%zmm14, %zmm6, %zmm16
	vmovdqu16	%zmm19, %zmm15{%k3}
	vpminsq	%zmm16, %zmm14, %zmm19
	vpmaxsq	%zmm16, %zmm14, %zmm14
	vpermq	%zmm11, %zmm6, %zmm16
	vmovdqu16	%zmm19, %zmm14{%k3}
	vpminsq	%zmm16, %zmm11, %zmm19
	vpmaxsq	%zmm16, %zmm11, %zmm11
	vpermq	%zmm13, %zmm6, %zmm16
	vmovdqu16	%zmm19, %zmm11{%k3}
	vpminsq	%zmm16, %zmm13, %zmm19
	vpmaxsq	%zmm16, %zmm13, %zmm13
	vpermq	%zmm12, %zmm6, %zmm16
	vmovdqu16	%zmm19, %zmm13{%k3}
	vpminsq	%zmm16, %zmm12, %zmm19
	vpmaxsq	%zmm16, %zmm12, %zmm12
	vpermq	%zmm10, %zmm6, %zmm16
	vmovdqu16	%zmm19, %zmm12{%k3}
	vpminsq	%zmm16, %zmm10, %zmm19
	vpmaxsq	%zmm16, %zmm10, %zmm10
	vpermq	%zmm5, %zmm6, %zmm16
	vmovdqu16	%zmm19, %zmm10{%k3}
	vpminsq	%zmm16, %zmm5, %zmm19
	vpmaxsq	%zmm16, %zmm5, %zmm5
	vpermq	%zmm3, %zmm6, %zmm16
	vmovdqu16	%zmm19, %zmm5{%k3}
	vpminsq	%zmm16, %zmm3, %zmm19
	vpmaxsq	%zmm16, %zmm3, %zmm3
	vpermq	%zmm2, %zmm6, %zmm16
	vmovdqu16	%zmm19, %zmm3{%k3}
	vpminsq	%zmm16, %zmm2, %zmm19
	vpmaxsq	%zmm16, %zmm2, %zmm2
	vpermq	%zmm4, %zmm6, %zmm16
	vmovdqu16	%zmm19, %zmm2{%k3}
	vpminsq	%zmm16, %zmm4, %zmm19
	vpmaxsq	%zmm16, %zmm4, %zmm4
	vpermq	%zmm1, %zmm6, %zmm16
	vmovdqu16	%zmm19, %zmm4{%k3}
	vpminsq	%zmm16, %zmm1, %zmm19
	vpmaxsq	%zmm16, %zmm1, %zmm1
	vpermq	%zmm9, %zmm6, %zmm16
	vmovdqu16	%zmm19, %zmm1{%k3}
	vpminsq	%zmm16, %zmm9, %zmm19
	vpmaxsq	%zmm16, %zmm9, %zmm9
	vpermq	%zmm8, %zmm6, %zmm16
	vmovdqu16	%zmm19, %zmm9{%k3}
	vpminsq	%zmm16, %zmm8, %zmm19
	vpmaxsq	%zmm16, %zmm8, %zmm8
	vpermq	%zmm7, %zmm6, %zmm16
	vmovdqu16	%zmm19, %zmm8{%k3}
	vpminsq	%zmm16, %zmm7, %zmm19
	vpmaxsq	%zmm16, %zmm7, %zmm7
	vpermq	%zmm17, %zmm6, %zmm16
	vpermq	%zmm0, %zmm6, %zmm6
	vmovdqu16	%zmm19, %zmm7{%k3}
	vpminsq	%zmm16, %zmm17, %zmm19
	vpmaxsq	%zmm16, %zmm17, %zmm17
	vpminsq	%zmm6, %zmm0, %zmm16
	vpmaxsq	%zmm6, %zmm0, %zmm0
	vshufi32x4	$177, %zmm15, %zmm15, %zmm6
	vmovdqu16	%zmm16, %zmm0{%k3}
	vpmaxsq	%zmm15, %zmm6, %zmm16
	vmovdqu16	%zmm19, %zmm17{%k3}
	vpminsq	%zmm15, %zmm6, %zmm16{%k2}
	vshufi32x4	$177, %zmm14, %zmm14, %zmm6
	vpmaxsq	%zmm14, %zmm6, %zmm15
	vpminsq	%zmm14, %zmm6, %zmm15{%k2}
	vshufi32x4	$177, %zmm11, %zmm11, %zmm6
	vpmaxsq	%zmm11, %zmm6, %zmm14
	vpminsq	%zmm11, %zmm6, %zmm14{%k2}
	vshufi32x4	$177, %zmm13, %zmm13, %zmm6
	vpmaxsq	%zmm13, %zmm6, %zmm11
	vpminsq	%zmm13, %zmm6, %zmm11{%k2}
	vshufi32x4	$177, %zmm12, %zmm12, %zmm6
	vpmaxsq	%zmm12, %zmm6, %zmm13
	vpminsq	%zmm12, %zmm6, %zmm13{%k2}
	vshufi32x4	$177, %zmm10, %zmm10, %zmm6
	vpmaxsq	%zmm10, %zmm6, %zmm12
	vpminsq	%zmm10, %zmm6, %zmm12{%k2}
	vshufi32x4	$177, %zmm5, %zmm5, %zmm6
	vpmaxsq	%zmm5, %zmm6, %zmm10
	vpminsq	%zmm5, %zmm6, %zmm10{%k2}
	vshufi32x4	$177, %zmm3, %zmm3, %zmm6
	vpmaxsq	%zmm3, %zmm6, %zmm5
	vpminsq	%zmm3, %zmm6, %zmm5{%k2}
	vshufi32x4	$177, %zmm2, %zmm2, %zmm6
	vpmaxsq	%zmm2, %zmm6, %zmm3
	vpminsq	%zmm2, %zmm6, %zmm3{%k2}
	vshufi32x4	$177, %zmm4, %zmm4, %zmm6
	vpmaxsq	%zmm4, %zmm6, %zmm2
	vpminsq	%zmm4, %zmm6, %zmm2{%k2}
	vshufi32x4	$177, %zmm1, %zmm1, %zmm6
	vpmaxsq	%zmm1, %zmm6, %zmm4
	vpminsq	%zmm1, %zmm6, %zmm4{%k2}
	vshufi32x4	$177, %zmm9, %zmm9, %zmm6
	vpmaxsq	%zmm9, %zmm6, %zmm1
	vpminsq	%zmm9, %zmm6, %zmm1{%k2}
	vshufi32x4	$177, %zmm8, %zmm8, %zmm6
	vpmaxsq	%zmm8, %zmm6, %zmm9
	vpminsq	%zmm8, %zmm6, %zmm9{%k2}
	vshufi32x4	$177, %zmm7, %zmm7, %zmm6
	vpmaxsq	%zmm7, %zmm6, %zmm8
	vpminsq	%zmm7, %zmm6, %zmm8{%k2}
	vshufi32x4	$177, %zmm17, %zmm17, %zmm6
	vpmaxsq	%zmm17, %zmm6, %zmm7
	vpminsq	%zmm17, %zmm6, %zmm7{%k2}
	vshufi32x4	$177, %zmm0, %zmm0, %zmm17
	vpmaxsq	%zmm0, %zmm17, %zmm6
	vpminsq	%zmm0, %zmm17, %zmm6{%k2}
	vpshufd	$78, %zmm16, %zmm0
	vpmaxsq	%zmm0, %zmm16, %zmm17
	vpminsq	%zmm0, %zmm16, %zmm17{%k1}
	vpshufd	$78, %zmm15, %zmm0
	vpmaxsq	%zmm0, %zmm15, %zmm16
	vpminsq	%zmm0, %zmm15, %zmm16{%k1}
	vpshufd	$78, %zmm14, %zmm0
	vpmaxsq	%zmm0, %zmm14, %zmm15
	vpminsq	%zmm0, %zmm14, %zmm15{%k1}
	vpshufd	$78, %zmm11, %zmm0
	vpmaxsq	%zmm0, %zmm11, %zmm14
	vpminsq	%zmm0, %zmm11, %zmm14{%k1}
	vpshufd	$78, %zmm13, %zmm0
	vpmaxsq	%zmm0, %zmm13, %zmm11
	vpminsq	%zmm0, %zmm13, %zmm11{%k1}
	vpshufd	$78, %zmm12, %zmm0
	vpmaxsq	%zmm0, %zmm12, %zmm13
	vpminsq	%zmm0, %zmm12, %zmm13{%k1}
	vpshufd	$78, %zmm10, %zmm0
	vpmaxsq	%zmm0, %zmm10, %zmm12
	vpminsq	%zmm0, %zmm10, %zmm12{%k1}
	vpshufd	$78, %zmm5, %zmm0
	vpmaxsq	%zmm0, %zmm5, %zmm10
	vpminsq	%zmm0, %zmm5, %zmm10{%k1}
	vpshufd	$78, %zmm3, %zmm0
	vpmaxsq	%zmm0, %zmm3, %zmm5
	vpminsq	%zmm0, %zmm3, %zmm5{%k1}
	vpshufd	$78, %zmm2, %zmm0
	vpmaxsq	%zmm0, %zmm2, %zmm3
	vpminsq	%zmm0, %zmm2, %zmm3{%k1}
	vpshufd	$78, %zmm4, %zmm0
	vpmaxsq	%zmm0, %zmm4, %zmm2
	vpminsq	%zmm0, %zmm4, %zmm2{%k1}
	vpshufd	$78, %zmm1, %zmm0
	vpmaxsq	%zmm0, %zmm1, %zmm4
	vpminsq	%zmm0, %zmm1, %zmm4{%k1}
	vpshufd	$78, %zmm9, %zmm0
	vpmaxsq	%zmm0, %zmm9, %zmm1
	vpminsq	%zmm0, %zmm9, %zmm1{%k1}
	vpshufd	$78, %zmm8, %zmm9
	vpmaxsq	%zmm9, %zmm8, %zmm0
	vpminsq	%zmm9, %zmm8, %zmm0{%k1}
	vpshufd	$78, %zmm7, %zmm9
	vpmaxsq	%zmm9, %zmm7, %zmm8
	vpminsq	%zmm9, %zmm7, %zmm8{%k1}
	vpshufd	$78, %zmm6, %zmm9
	vpmaxsq	%zmm9, %zmm6, %zmm7
	vpminsq	%zmm9, %zmm6, %zmm7{%k1}
.L123:
	vmovdqu64	%zmm17, (%rdi)
	vmovq	%xmm18, %rdi
	vmovdqu64	%zmm16, (%rdi)
	vmovdqu64	%zmm15, (%r14)
	vmovdqu64	%zmm14, 0(%r13)
	vmovdqu64	%zmm11, (%r12)
	vmovdqu64	%zmm13, (%rbx)
	vmovq	%xmm23, %rbx
	vmovdqu64	%zmm12, (%r11)
	vmovdqu64	%zmm10, (%r10)
	vmovdqu64	%zmm5, (%r9)
	vmovdqu64	%zmm3, (%r8)
	vmovdqu64	%zmm2, (%rbx)
	vmovdqu64	%zmm4, (%rsi)
	vmovdqu64	%zmm1, (%rcx)
	vmovdqu64	%zmm0, (%rdx)
	vmovdqu64	%zmm8, (%rax)
	movq	-16(%rsp), %rax
	vmovdqu64	%zmm7, (%rax)
	vzeroupper
	leaq	-40(%rbp), %rsp
	popq	%rbx
	popq	%r12
	popq	%r13
	popq	%r14
	popq	%r15
	popq	%rbp
	.cfi_def_cfa 7, 8
	ret
	.cfi_endproc
.LFE18785:
	.size	_ZN3hwy11N_AVX3_ZEN46detail14SortingNetworkINS1_12SharedTraitsINS1_10TraitsLaneINS1_14OrderAscendingIlEEEEEElEEvT_PT0_m.isra.0, .-_ZN3hwy11N_AVX3_ZEN46detail14SortingNetworkINS1_12SharedTraitsINS1_10TraitsLaneINS1_14OrderAscendingIlEEEEEElEEvT_PT0_m.isra.0
	.section	.text._ZN3hwy6N_AVX36detail22MaybePartitionTwoValueINS0_4SimdIlLm8ELi0EEENS1_12SharedTraitsINS1_10TraitsLaneINS1_14OrderAscendingIlEEEEEElEEbT_T0_PT1_mDTcl4ZerocvSB__EEESF_RSF_SE_.isra.0,"ax",@progbits
	.p2align 4
	.type	_ZN3hwy6N_AVX36detail22MaybePartitionTwoValueINS0_4SimdIlLm8ELi0EEENS1_12SharedTraitsINS1_10TraitsLaneINS1_14OrderAscendingIlEEEEEElEEbT_T0_PT1_mDTcl4ZerocvSB__EEESF_RSF_SE_.isra.0, @function
_ZN3hwy6N_AVX36detail22MaybePartitionTwoValueINS0_4SimdIlLm8ELi0EEENS1_12SharedTraitsINS1_10TraitsLaneINS1_14OrderAscendingIlEEEEEElEEbT_T0_PT1_mDTcl4ZerocvSB__EEESF_RSF_SE_.isra.0:
.LFB18786:
	.cfi_startproc
	pushq	%rbp
	.cfi_def_cfa_offset 16
	.cfi_offset 6, -16
	movq	%rsi, %r10
	movq	%rsp, %rbp
	.cfi_def_cfa_register 6
	pushq	%rbx
	.cfi_offset 3, -24
	cmpq	$7, %rsi
	jbe	.L141
	movl	$8, %r8d
	xorl	%esi, %esi
	jmp	.L132
	.p2align 4,,10
	.p2align 3
.L127:
	vmovdqu64	%zmm0, (%rax)
	kmovb	%k0, %eax
	popcntq	%rax, %rax
	addq	%rax, %rsi
	leaq	8(%r8), %rax
	cmpq	%r10, %rax
	ja	.L152
	movq	%rax, %r8
.L132:
	vmovdqu64	-64(%rdi,%r8,8), %zmm3
	leaq	-8(%r8), %r9
	leaq	(%rdi,%rsi,8), %rax
	vpcmpq	$0, %zmm0, %zmm3, %k0
	vpcmpq	$0, %zmm1, %zmm3, %k1
	kmovb	%k0, %r11d
	kmovb	%k1, %ebx
	korb	%k1, %k0, %k1
	kortestb	%k1, %k1
	jc	.L127
	kmovb	%r11d, %k6
	kmovb	%ebx, %k5
	kxnorb	%k5, %k6, %k7
	kmovb	%k7, %eax
	tzcntl	%eax, %eax
	addq	%r9, %rax
	vpbroadcastq	(%rdi,%rax,8), %zmm0
	leaq	8(%rsi), %rax
	vmovdqa64	%zmm0, (%rdx)
	cmpq	%r9, %rax
	ja	.L128
	.p2align 4,,10
	.p2align 3
.L129:
	vmovdqu64	%zmm1, -64(%rdi,%rax,8)
	movq	%rax, %rsi
	addq	$8, %rax
	cmpq	%rax, %r9
	jnb	.L129
.L128:
	subq	%rsi, %r9
	leaq	(%rdi,%rsi,8), %rdx
	movl	$255, %eax
	cmpq	$255, %r9
	jbe	.L153
.L130:
	kmovb	%eax, %k4
	xorl	%eax, %eax
	vmovdqu64	%zmm1, (%rdx){%k4}
.L125:
	movq	-8(%rbp), %rbx
	leave
	.cfi_remember_state
	.cfi_def_cfa 7, 8
	ret
	.p2align 4,,10
	.p2align 3
.L153:
	.cfi_restore_state
	movq	$-1, %rax
	bzhi	%r9, %rax, %rax
	movzbl	%al, %eax
	jmp	.L130
	.p2align 4,,10
	.p2align 3
.L152:
	movq	%r10, %r11
	leaq	(%rdi,%r8,8), %rbx
	leaq	(%rdi,%rsi,8), %r9
	movl	$255, %eax
	subq	%r8, %r11
	kmovd	%eax, %k1
	cmpq	$255, %r11
	jbe	.L126
.L133:
	vmovdqu64	(%rbx), %zmm2{%k1}{z}
	knotb	%k1, %k3
	vmovdqu64	%zmm2, (%rcx){%k1}
	vmovdqa64	(%rcx), %zmm2
	vpcmpq	$0, %zmm0, %zmm2, %k0
	vpcmpq	$0, %zmm1, %zmm2, %k2
	kandb	%k1, %k0, %k0
	korb	%k2, %k0, %k2
	korb	%k3, %k2, %k2
	kortestb	%k2, %k2
	jnc	.L154
	kmovb	%k0, %edx
	popcntq	%rdx, %rdx
	addq	%rsi, %rdx
	vmovdqu64	%zmm0, (%r9){%k1}
	leaq	8(%rdx), %rax
	cmpq	%r10, %rax
	ja	.L138
	.p2align 4,,10
	.p2align 3
.L139:
	vmovdqu64	%zmm1, -64(%rdi,%rax,8)
	movq	%rax, %rdx
	addq	$8, %rax
	cmpq	%rax, %r10
	jnb	.L139
.L138:
	subq	%rdx, %r10
	leaq	(%rdi,%rdx,8), %rcx
	movl	$255, %eax
	cmpq	$255, %r10
	ja	.L140
	movq	$-1, %rax
	bzhi	%r10, %rax, %rax
	movzbl	%al, %eax
.L140:
	kmovb	%eax, %k5
	movl	$1, %eax
	vmovdqu64	%zmm1, (%rcx){%k5}
	movq	-8(%rbp), %rbx
	leave
	.cfi_remember_state
	.cfi_def_cfa 7, 8
	ret
.L141:
	.cfi_restore_state
	movq	%rsi, %r11
	movq	%rdi, %r9
	movq	%rdi, %rbx
	xorl	%r8d, %r8d
	xorl	%esi, %esi
.L126:
	movq	$-1, %rax
	bzhi	%r11, %rax, %rax
	movzbl	%al, %eax
	kmovd	%eax, %k1
	jmp	.L133
.L154:
	knotb	%k2, %k3
	kmovb	%k3, %eax
	tzcntl	%eax, %eax
	addq	%r8, %rax
	vpbroadcastq	(%rdi,%rax,8), %zmm0
	leaq	8(%rsi), %rax
	vmovdqa64	%zmm0, (%rdx)
	cmpq	%r8, %rax
	ja	.L135
	.p2align 4,,10
	.p2align 3
.L136:
	vmovdqu64	%zmm1, -64(%rdi,%rax,8)
	movq	%rax, %rsi
	leaq	8(%rax), %rax
	cmpq	%rax, %r8
	jnb	.L136
	leaq	(%rdi,%rsi,8), %r9
.L135:
	subq	%rsi, %r8
	movl	$255, %eax
	cmpq	$255, %r8
	ja	.L137
	movq	$-1, %rax
	bzhi	%r8, %rax, %rax
	movzbl	%al, %eax
.L137:
	kmovb	%eax, %k6
	xorl	%eax, %eax
	vmovdqu64	%zmm1, (%r9){%k6}
	jmp	.L125
	.cfi_endproc
.LFE18786:
	.size	_ZN3hwy6N_AVX36detail22MaybePartitionTwoValueINS0_4SimdIlLm8ELi0EEENS1_12SharedTraitsINS1_10TraitsLaneINS1_14OrderAscendingIlEEEEEElEEbT_T0_PT1_mDTcl4ZerocvSB__EEESF_RSF_SE_.isra.0, .-_ZN3hwy6N_AVX36detail22MaybePartitionTwoValueINS0_4SimdIlLm8ELi0EEENS1_12SharedTraitsINS1_10TraitsLaneINS1_14OrderAscendingIlEEEEEElEEbT_T0_PT1_mDTcl4ZerocvSB__EEESF_RSF_SE_.isra.0
	.section	.text._ZN3hwy6N_AVX36detail8SiftDownINS1_12SharedTraitsINS1_10TraitsLaneINS1_14OrderAscendingIlEEEEEElEEvT_PT0_mm.isra.0,"ax",@progbits
	.p2align 4
	.type	_ZN3hwy6N_AVX36detail8SiftDownINS1_12SharedTraitsINS1_10TraitsLaneINS1_14OrderAscendingIlEEEEEElEEvT_PT0_mm.isra.0, @function
_ZN3hwy6N_AVX36detail8SiftDownINS1_12SharedTraitsINS1_10TraitsLaneINS1_14OrderAscendingIlEEEEEElEEvT_PT0_mm.isra.0:
.LFB18787:
	.cfi_startproc
	movq	%rsi, %r8
	movq	%rdx, %rcx
	cmpq	%rdx, %rsi
	jbe	.L165
	leaq	(%rdx,%rdx), %rdx
	leaq	1(%rcx), %r9
	leaq	1(%rdx), %rsi
	addq	$2, %rdx
	cmpq	%rsi, %r8
	jbe	.L165
	movq	(%rdi,%rcx,8), %r11
	vpbroadcastq	%r11, %xmm1
	jmp	.L158
	.p2align 4,,10
	.p2align 3
.L168:
	movq	%rsi, %rax
	cmpq	%rdx, %r8
	ja	.L166
.L160:
	cmpq	%rcx, %rax
	je	.L165
	leaq	(%rdi,%rax,8), %rdx
	movq	(%rdx), %rcx
	movq	%rcx, (%r10)
	movq	%r11, (%rdx)
	cmpq	%rax, %r8
	jbe	.L167
	leaq	(%rax,%rax), %rdx
	leaq	1(%rax), %r9
	leaq	1(%rdx), %rsi
	addq	$2, %rdx
	cmpq	%r8, %rsi
	jnb	.L165
	movq	%rax, %rcx
.L158:
	vpbroadcastq	(%rdi,%rsi,8), %xmm0
	leaq	(%rdi,%rcx,8), %r10
	vpcmpq	$6, %xmm1, %xmm0, %k0
	kmovb	%k0, %eax
	testb	$1, %al
	jne	.L168
	cmpq	%rdx, %r8
	jbe	.L165
	salq	$4, %r9
	vpbroadcastq	(%rdi,%r9), %xmm0
	vpcmpq	$6, %xmm1, %xmm0, %k1
	kmovb	%k1, %eax
	testb	$1, %al
	je	.L165
	movq	%rdx, %rax
	jmp	.L160
	.p2align 4,,10
	.p2align 3
.L165:
	ret
	.p2align 4,,10
	.p2align 3
.L166:
	salq	$4, %r9
	vpbroadcastq	(%rdi,%r9), %xmm2
	vpcmpq	$6, %xmm0, %xmm2, %k2
	kmovb	%k2, %esi
	andl	$1, %esi
	cmovne	%rdx, %rax
	jmp	.L160
	.p2align 4,,10
	.p2align 3
.L167:
	ret
	.cfi_endproc
.LFE18787:
	.size	_ZN3hwy6N_AVX36detail8SiftDownINS1_12SharedTraitsINS1_10TraitsLaneINS1_14OrderAscendingIlEEEEEElEEvT_PT0_mm.isra.0, .-_ZN3hwy6N_AVX36detail8SiftDownINS1_12SharedTraitsINS1_10TraitsLaneINS1_14OrderAscendingIlEEEEEElEEvT_PT0_mm.isra.0
	.section	.text._ZN3hwy6N_AVX36detail14SortingNetworkINS1_12SharedTraitsINS1_10TraitsLaneINS1_14OrderAscendingIlEEEEEElEEvT_PT0_m.isra.0,"ax",@progbits
	.p2align 4
	.type	_ZN3hwy6N_AVX36detail14SortingNetworkINS1_12SharedTraitsINS1_10TraitsLaneINS1_14OrderAscendingIlEEEEEElEEvT_PT0_m.isra.0, @function
_ZN3hwy6N_AVX36detail14SortingNetworkINS1_12SharedTraitsINS1_10TraitsLaneINS1_14OrderAscendingIlEEEEEElEEvT_PT0_m.isra.0:
.LFB18788:
	.cfi_startproc
	pushq	%rbp
	.cfi_def_cfa_offset 16
	.cfi_offset 6, -16
	movq	%rsp, %rbp
	.cfi_def_cfa_register 6
	pushq	%r15
	.cfi_offset 15, -24
	leaq	0(,%rsi,8), %r15
	leaq	(%rdi,%r15), %rdx
	pushq	%r14
	.cfi_offset 14, -32
	leaq	(%rdx,%r15), %r14
	pushq	%r13
	vmovq	%rdx, %xmm18
	.cfi_offset 13, -40
	leaq	(%r14,%r15), %r13
	pushq	%r12
	.cfi_offset 12, -48
	leaq	0(%r13,%r15), %r12
	pushq	%rbx
	.cfi_offset 3, -56
	leaq	(%r12,%r15), %rbx
	leaq	(%rbx,%r15), %r11
	leaq	(%r11,%r15), %r10
	andq	$-64, %rsp
	leaq	(%r10,%r15), %r9
	movq	%rsi, -8(%rsp)
	leaq	(%r9,%r15), %r8
	vmovdqu64	(%rdi), %zmm4
	vmovdqu64	(%r9), %zmm5
	leaq	(%r8,%r15), %rdx
	vpminsq	(%r8), %zmm5, %zmm8
	vmovdqu64	(%r11), %zmm1
	leaq	(%rdx,%r15), %rsi
	vmovq	%rdx, %xmm23
	vpmaxsq	(%r8), %zmm5, %zmm6
	leaq	(%rsi,%r15), %rcx
	leaq	(%rcx,%r15), %rdx
	leaq	(%rdx,%r15), %rax
	addq	%rax, %r15
	movq	%r15, -16(%rsp)
	vmovq	%xmm18, %r15
	vpminsq	(%r15), %zmm4, %zmm13
	vpmaxsq	(%r15), %zmm4, %zmm7
	vmovq	%xmm23, %r15
	vmovdqu64	(%r14), %zmm4
	vmovdqu64	(%r15), %zmm5
	vpminsq	0(%r13), %zmm4, %zmm14
	vpmaxsq	0(%r13), %zmm4, %zmm3
	vpminsq	(%rsi), %zmm5, %zmm9
	vpmaxsq	(%rsi), %zmm5, %zmm15
	vmovdqu64	(%r12), %zmm4
	vmovdqu64	(%rcx), %zmm5
	vpminsq	%zmm14, %zmm13, %zmm10
	vpmaxsq	%zmm14, %zmm13, %zmm13
	vpminsq	(%rbx), %zmm4, %zmm12
	vpmaxsq	(%rbx), %zmm4, %zmm2
	vpminsq	(%rdx), %zmm5, %zmm0
	vpminsq	(%r10), %zmm1, %zmm4
	vpmaxsq	(%rdx), %zmm5, %zmm16
	vpmaxsq	(%r10), %zmm1, %zmm1
	vmovdqu64	(%rax), %zmm5
	movq	-16(%rsp), %r15
	vpminsq	%zmm3, %zmm7, %zmm14
	vpmaxsq	%zmm3, %zmm7, %zmm7
	vpminsq	%zmm4, %zmm12, %zmm3
	vpmaxsq	%zmm4, %zmm12, %zmm12
	cmpq	$1, -8(%rsp)
	vpminsq	(%r15), %zmm5, %zmm11
	vpmaxsq	(%r15), %zmm5, %zmm5
	vpminsq	%zmm1, %zmm2, %zmm4
	vpmaxsq	%zmm1, %zmm2, %zmm2
	vpminsq	%zmm9, %zmm8, %zmm1
	vpmaxsq	%zmm9, %zmm8, %zmm8
	vpminsq	%zmm15, %zmm6, %zmm9
	vpmaxsq	%zmm15, %zmm6, %zmm6
	vpminsq	%zmm11, %zmm0, %zmm15
	vpmaxsq	%zmm11, %zmm0, %zmm0
	vpminsq	%zmm5, %zmm16, %zmm11
	vpmaxsq	%zmm5, %zmm16, %zmm16
	vpminsq	%zmm3, %zmm10, %zmm5
	vpmaxsq	%zmm3, %zmm10, %zmm10
	vpminsq	%zmm4, %zmm14, %zmm3
	vpmaxsq	%zmm4, %zmm14, %zmm14
	vpminsq	%zmm12, %zmm13, %zmm4
	vpmaxsq	%zmm12, %zmm13, %zmm13
	vpminsq	%zmm2, %zmm7, %zmm12
	vpmaxsq	%zmm2, %zmm7, %zmm7
	vpminsq	%zmm15, %zmm1, %zmm2
	vpmaxsq	%zmm15, %zmm1, %zmm1
	vpminsq	%zmm11, %zmm9, %zmm15
	vpmaxsq	%zmm11, %zmm9, %zmm9
	vpminsq	%zmm0, %zmm8, %zmm11
	vpmaxsq	%zmm0, %zmm8, %zmm8
	vpminsq	%zmm16, %zmm6, %zmm0
	vpmaxsq	%zmm16, %zmm6, %zmm6
	vpminsq	%zmm2, %zmm5, %zmm17
	vpmaxsq	%zmm2, %zmm5, %zmm5
	vpminsq	%zmm15, %zmm3, %zmm2
	vpmaxsq	%zmm15, %zmm3, %zmm3
	vpminsq	%zmm11, %zmm4, %zmm15
	vpmaxsq	%zmm11, %zmm4, %zmm4
	vpminsq	%zmm0, %zmm12, %zmm11
	vpmaxsq	%zmm0, %zmm12, %zmm12
	vpminsq	%zmm1, %zmm10, %zmm0
	vpmaxsq	%zmm1, %zmm10, %zmm10
	vpminsq	%zmm9, %zmm14, %zmm1
	vpmaxsq	%zmm9, %zmm14, %zmm14
	vpminsq	%zmm8, %zmm13, %zmm9
	vpmaxsq	%zmm8, %zmm13, %zmm13
	vpminsq	%zmm6, %zmm7, %zmm8
	vpmaxsq	%zmm6, %zmm7, %zmm7
	vpminsq	%zmm4, %zmm1, %zmm6
	vpmaxsq	%zmm4, %zmm1, %zmm1
	vpminsq	%zmm3, %zmm9, %zmm4
	vpmaxsq	%zmm3, %zmm9, %zmm9
	vpminsq	%zmm10, %zmm11, %zmm3
	vpmaxsq	%zmm10, %zmm11, %zmm11
	vpminsq	%zmm12, %zmm8, %zmm10
	vpmaxsq	%zmm12, %zmm8, %zmm8
	vpminsq	%zmm13, %zmm14, %zmm12
	vpmaxsq	%zmm13, %zmm14, %zmm14
	vpminsq	%zmm5, %zmm0, %zmm13
	vpmaxsq	%zmm5, %zmm0, %zmm0
	vpminsq	%zmm15, %zmm2, %zmm5
	vpmaxsq	%zmm15, %zmm2, %zmm2
	vpminsq	%zmm13, %zmm5, %zmm16
	vpmaxsq	%zmm13, %zmm5, %zmm5
	vpminsq	%zmm12, %zmm10, %zmm13
	vpmaxsq	%zmm12, %zmm10, %zmm10
	vpminsq	%zmm0, %zmm2, %zmm12
	vpmaxsq	%zmm0, %zmm2, %zmm2
	vpminsq	%zmm14, %zmm8, %zmm0
	vpminsq	%zmm5, %zmm12, %zmm15
	vpmaxsq	%zmm5, %zmm12, %zmm12
	vpminsq	%zmm4, %zmm6, %zmm5
	vpmaxsq	%zmm4, %zmm6, %zmm6
	vpminsq	%zmm1, %zmm9, %zmm4
	vpmaxsq	%zmm1, %zmm9, %zmm9
	vpminsq	%zmm10, %zmm0, %zmm1
	vpmaxsq	%zmm10, %zmm0, %zmm0
	vpminsq	%zmm2, %zmm3, %zmm10
	vpmaxsq	%zmm2, %zmm3, %zmm3
	vpminsq	%zmm11, %zmm13, %zmm2
	vpmaxsq	%zmm11, %zmm13, %zmm13
	vpminsq	%zmm5, %zmm10, %zmm11
	vpmaxsq	%zmm5, %zmm10, %zmm10
	vpminsq	%zmm3, %zmm6, %zmm5
	vpmaxsq	%zmm3, %zmm6, %zmm6
	vpminsq	%zmm4, %zmm2, %zmm3
	vpmaxsq	%zmm4, %zmm2, %zmm2
	vpminsq	%zmm13, %zmm9, %zmm4
	vpmaxsq	%zmm13, %zmm9, %zmm9
	vpminsq	%zmm5, %zmm10, %zmm13
	vpmaxsq	%zmm5, %zmm10, %zmm10
	vpminsq	%zmm6, %zmm3, %zmm5
	vpmaxsq	%zmm6, %zmm3, %zmm3
	vpminsq	%zmm4, %zmm2, %zmm6
	vpmaxsq	%zmm14, %zmm8, %zmm8
	vpmaxsq	%zmm4, %zmm2, %zmm2
	vpminsq	%zmm12, %zmm11, %zmm14
	vpminsq	%zmm9, %zmm1, %zmm4
	vpmaxsq	%zmm12, %zmm11, %zmm11
	vpmaxsq	%zmm9, %zmm1, %zmm1
	vpminsq	%zmm5, %zmm10, %zmm12
	vpmaxsq	%zmm5, %zmm10, %zmm10
	vpminsq	%zmm6, %zmm3, %zmm5
	vpmaxsq	%zmm6, %zmm3, %zmm3
	jbe	.L170
	vpshufd	$78, %zmm0, %zmm6
	vpshufd	$78, %zmm7, %zmm7
	vpshufd	$78, %zmm5, %zmm5
	movl	$85, %r15d
	vpshufd	$78, %zmm3, %zmm3
	vpshufd	$78, %zmm2, %zmm2
	vpshufd	$78, %zmm4, %zmm4
	kmovb	%r15d, %k1
	vpshufd	$78, %zmm1, %zmm1
	vpshufd	$78, %zmm8, %zmm8
	vpminsq	%zmm7, %zmm17, %zmm0
	cmpq	$3, -8(%rsp)
	vpmaxsq	%zmm7, %zmm17, %zmm9
	vpminsq	%zmm8, %zmm16, %zmm17
	vpminsq	%zmm2, %zmm13, %zmm7
	vpmaxsq	%zmm8, %zmm16, %zmm8
	vpshufd	$78, %zmm9, %zmm9
	vpminsq	%zmm6, %zmm15, %zmm16
	vpmaxsq	%zmm6, %zmm15, %zmm6
	vpshufd	$78, %zmm8, %zmm8
	vpminsq	%zmm1, %zmm14, %zmm15
	vpmaxsq	%zmm1, %zmm14, %zmm1
	vpshufd	$78, %zmm7, %zmm7
	vpminsq	%zmm4, %zmm11, %zmm14
	vpmaxsq	%zmm4, %zmm11, %zmm4
	vpshufd	$78, %zmm1, %zmm1
	vpminsq	%zmm3, %zmm12, %zmm11
	vpmaxsq	%zmm3, %zmm12, %zmm3
	vpshufd	$78, %zmm14, %zmm14
	vpminsq	%zmm5, %zmm10, %zmm12
	vpmaxsq	%zmm5, %zmm10, %zmm5
	vpshufd	$78, %zmm11, %zmm10
	vpshufd	$78, %zmm12, %zmm12
	vpmaxsq	%zmm2, %zmm13, %zmm2
	vpmaxsq	%zmm9, %zmm5, %zmm19
	vpminsq	%zmm12, %zmm0, %zmm11
	vpmaxsq	%zmm12, %zmm0, %zmm13
	vpshufd	$78, %zmm6, %zmm6
	vpminsq	%zmm9, %zmm5, %zmm0
	vpminsq	%zmm14, %zmm15, %zmm12
	vpminsq	%zmm8, %zmm3, %zmm9
	vpminsq	%zmm10, %zmm17, %zmm5
	vpshufd	$78, %zmm12, %zmm12
	vpmaxsq	%zmm10, %zmm17, %zmm10
	vpmaxsq	%zmm8, %zmm3, %zmm17
	vpminsq	%zmm7, %zmm16, %zmm3
	vpminsq	%zmm6, %zmm2, %zmm8
	vpshufd	$78, %zmm10, %zmm10
	vpmaxsq	%zmm6, %zmm2, %zmm6
	vpmaxsq	%zmm14, %zmm15, %zmm14
	vpshufd	$78, %zmm3, %zmm2
	vpminsq	%zmm1, %zmm4, %zmm15
	vpshufd	$78, %zmm17, %zmm3
	vpmaxsq	%zmm1, %zmm4, %zmm4
	vpmaxsq	%zmm12, %zmm11, %zmm17
	vpmaxsq	%zmm7, %zmm16, %zmm7
	vpshufd	$78, %zmm8, %zmm1
	vpshufd	$78, %zmm13, %zmm16
	vpshufd	$78, %zmm15, %zmm8
	vpminsq	%zmm12, %zmm11, %zmm13
	vpshufd	$78, %zmm19, %zmm15
	vpminsq	%zmm2, %zmm5, %zmm11
	vpminsq	%zmm16, %zmm14, %zmm12
	vpminsq	%zmm8, %zmm0, %zmm19
	vpmaxsq	%zmm16, %zmm14, %zmm14
	vpshufd	$78, %zmm11, %zmm11
	vpmaxsq	%zmm8, %zmm0, %zmm16
	vpminsq	%zmm1, %zmm9, %zmm0
	vpminsq	%zmm15, %zmm4, %zmm8
	vpmaxsq	%zmm15, %zmm4, %zmm15
	vpshufd	$78, %zmm0, %zmm4
	vpmaxsq	%zmm2, %zmm5, %zmm5
	vpshufd	$78, %zmm16, %zmm0
	vpminsq	%zmm10, %zmm7, %zmm2
	vpshufd	$78, %zmm15, %zmm16
	vpmaxsq	%zmm10, %zmm7, %zmm7
	vpminsq	%zmm11, %zmm13, %zmm15
	vpshufd	$78, %zmm17, %zmm10
	vpmaxsq	%zmm1, %zmm9, %zmm1
	vpminsq	%zmm3, %zmm6, %zmm9
	vpmaxsq	%zmm3, %zmm6, %zmm6
	vpshufd	$78, %zmm14, %zmm3
	vpmaxsq	%zmm11, %zmm13, %zmm14
	vpminsq	%zmm10, %zmm5, %zmm11
	vpmaxsq	%zmm10, %zmm5, %zmm5
	vpshufd	$78, %zmm15, %zmm10
	vpmaxsq	%zmm10, %zmm15, %zmm17
	vpshufd	$78, %zmm2, %zmm2
	vpshufd	$78, %zmm9, %zmm9
	vpminsq	%zmm10, %zmm15, %zmm17{%k1}
	vpshufd	$78, %zmm14, %zmm10
	vpminsq	%zmm2, %zmm12, %zmm13
	vpmaxsq	%zmm2, %zmm12, %zmm12
	vpminsq	%zmm3, %zmm7, %zmm2
	vpmaxsq	%zmm3, %zmm7, %zmm7
	vpminsq	%zmm4, %zmm19, %zmm3
	vpmaxsq	%zmm4, %zmm19, %zmm19
	vpminsq	%zmm0, %zmm1, %zmm4
	vpmaxsq	%zmm0, %zmm1, %zmm1
	vpminsq	%zmm9, %zmm8, %zmm0
	vpmaxsq	%zmm9, %zmm8, %zmm8
	vpminsq	%zmm16, %zmm6, %zmm9
	vpmaxsq	%zmm16, %zmm6, %zmm6
	vpmaxsq	%zmm10, %zmm14, %zmm16
	vpminsq	%zmm10, %zmm14, %zmm16{%k1}
	vpshufd	$78, %zmm11, %zmm10
	vpmaxsq	%zmm10, %zmm11, %zmm15
	vpminsq	%zmm10, %zmm11, %zmm15{%k1}
	vpshufd	$78, %zmm5, %zmm10
	vpmaxsq	%zmm10, %zmm5, %zmm14
	vpminsq	%zmm10, %zmm5, %zmm14{%k1}
	vpshufd	$78, %zmm13, %zmm5
	vpmaxsq	%zmm5, %zmm13, %zmm11
	vpminsq	%zmm5, %zmm13, %zmm11{%k1}
	vpshufd	$78, %zmm12, %zmm5
	vpmaxsq	%zmm5, %zmm12, %zmm13
	vpminsq	%zmm5, %zmm12, %zmm13{%k1}
	vpshufd	$78, %zmm2, %zmm5
	vpmaxsq	%zmm5, %zmm2, %zmm12
	vpminsq	%zmm5, %zmm2, %zmm12{%k1}
	vpshufd	$78, %zmm7, %zmm2
	vpmaxsq	%zmm2, %zmm7, %zmm10
	vpminsq	%zmm2, %zmm7, %zmm10{%k1}
	vpshufd	$78, %zmm3, %zmm2
	vpshufd	$78, %zmm4, %zmm7
	vpmaxsq	%zmm2, %zmm3, %zmm5
	vpminsq	%zmm2, %zmm3, %zmm5{%k1}
	vpshufd	$78, %zmm19, %zmm2
	vpmaxsq	%zmm2, %zmm19, %zmm3
	vpminsq	%zmm2, %zmm19, %zmm3{%k1}
	vpmaxsq	%zmm7, %zmm4, %zmm2
	vpminsq	%zmm7, %zmm4, %zmm2{%k1}
	vpshufd	$78, %zmm1, %zmm7
	vpmaxsq	%zmm7, %zmm1, %zmm4
	vpminsq	%zmm7, %zmm1, %zmm4{%k1}
	vpshufd	$78, %zmm0, %zmm7
	vpmaxsq	%zmm7, %zmm0, %zmm1
	vpminsq	%zmm7, %zmm0, %zmm1{%k1}
	vpshufd	$78, %zmm8, %zmm7
	vpmaxsq	%zmm7, %zmm8, %zmm0
	vpminsq	%zmm7, %zmm8, %zmm0{%k1}
	vpshufd	$78, %zmm9, %zmm7
	vpmaxsq	%zmm7, %zmm9, %zmm8
	vpminsq	%zmm7, %zmm9, %zmm8{%k1}
	vpshufd	$78, %zmm6, %zmm9
	vpmaxsq	%zmm9, %zmm6, %zmm7
	vpminsq	%zmm9, %zmm6, %zmm7{%k1}
	jbe	.L170
	vpermq	$27, %zmm5, %zmm5
	vpermq	$27, %zmm3, %zmm3
	vpermq	$27, %zmm2, %zmm2
	movl	$51, %r15d
	vpermq	$27, %zmm4, %zmm4
	vpermq	$27, %zmm1, %zmm1
	kmovb	%r15d, %k2
	vpermq	$27, %zmm0, %zmm0
	vpermq	$27, %zmm8, %zmm8
	vpermq	$27, %zmm7, %zmm7
	vpminsq	%zmm2, %zmm13, %zmm6
	cmpq	$7, -8(%rsp)
	vpminsq	%zmm7, %zmm17, %zmm9
	vpmaxsq	%zmm7, %zmm17, %zmm7
	vpermq	$27, %zmm6, %zmm6
	vpminsq	%zmm8, %zmm16, %zmm17
	vpmaxsq	%zmm8, %zmm16, %zmm8
	vpermq	$27, %zmm7, %zmm7
	vpminsq	%zmm0, %zmm15, %zmm16
	vpmaxsq	%zmm0, %zmm15, %zmm0
	vpermq	$27, %zmm8, %zmm8
	vpminsq	%zmm1, %zmm14, %zmm15
	vpmaxsq	%zmm1, %zmm14, %zmm1
	vpermq	$27, %zmm0, %zmm0
	vpminsq	%zmm4, %zmm11, %zmm14
	vpmaxsq	%zmm4, %zmm11, %zmm4
	vpermq	$27, %zmm1, %zmm1
	vpminsq	%zmm3, %zmm12, %zmm11
	vpmaxsq	%zmm3, %zmm12, %zmm3
	vpermq	$27, %zmm14, %zmm14
	vpminsq	%zmm5, %zmm10, %zmm12
	vpmaxsq	%zmm5, %zmm10, %zmm5
	vpermq	$27, %zmm11, %zmm10
	vpermq	$27, %zmm12, %zmm12
	vpminsq	%zmm7, %zmm5, %zmm11
	vpmaxsq	%zmm2, %zmm13, %zmm2
	vpminsq	%zmm12, %zmm9, %zmm19
	vpmaxsq	%zmm12, %zmm9, %zmm13
	vpmaxsq	%zmm7, %zmm5, %zmm20
	vpminsq	%zmm8, %zmm3, %zmm9
	vpminsq	%zmm10, %zmm17, %zmm5
	vpmaxsq	%zmm10, %zmm17, %zmm10
	vpmaxsq	%zmm8, %zmm3, %zmm17
	vpminsq	%zmm6, %zmm16, %zmm3
	vpermq	$27, %zmm10, %zmm10
	vpminsq	%zmm14, %zmm15, %zmm8
	vpminsq	%zmm0, %zmm2, %zmm7
	vpmaxsq	%zmm14, %zmm15, %zmm14
	vpmaxsq	%zmm0, %zmm2, %zmm0
	vpermq	$27, %zmm3, %zmm2
	vpminsq	%zmm1, %zmm4, %zmm15
	vpmaxsq	%zmm1, %zmm4, %zmm12
	vpermq	$27, %zmm8, %zmm3
	vpmaxsq	%zmm6, %zmm16, %zmm6
	vpermq	$27, %zmm13, %zmm1
	vpermq	$27, %zmm15, %zmm16
	vpermq	$27, %zmm17, %zmm8
	vpminsq	%zmm2, %zmm5, %zmm17
	vpminsq	%zmm3, %zmm19, %zmm13
	vpminsq	%zmm16, %zmm11, %zmm4
	vpermq	$27, %zmm7, %zmm7
	vpermq	$27, %zmm20, %zmm15
	vpmaxsq	%zmm3, %zmm19, %zmm19
	vpmaxsq	%zmm16, %zmm11, %zmm20
	vpermq	$27, %zmm17, %zmm11
	vpmaxsq	%zmm2, %zmm5, %zmm3
	vpminsq	%zmm1, %zmm14, %zmm5
	vpmaxsq	%zmm1, %zmm14, %zmm14
	vpminsq	%zmm7, %zmm9, %zmm16
	vpmaxsq	%zmm10, %zmm6, %zmm1
	vpminsq	%zmm10, %zmm6, %zmm2
	vpermq	$27, %zmm19, %zmm10
	vpermq	$27, %zmm14, %zmm6
	vpmaxsq	%zmm7, %zmm9, %zmm9
	vpminsq	%zmm11, %zmm13, %zmm14
	vpminsq	%zmm15, %zmm12, %zmm7
	vpmaxsq	%zmm15, %zmm12, %zmm15
	vpermq	$27, %zmm16, %zmm17
	vpminsq	%zmm8, %zmm0, %zmm12
	vpmaxsq	%zmm11, %zmm13, %zmm13
	vpermq	$27, %zmm2, %zmm2
	vpminsq	%zmm10, %zmm3, %zmm11
	vpermq	$27, %zmm12, %zmm16
	vpmaxsq	%zmm10, %zmm3, %zmm3
	vpmaxsq	%zmm8, %zmm0, %zmm0
	vpermq	$27, %zmm14, %zmm10
	vpermq	$27, %zmm20, %zmm8
	vpminsq	%zmm17, %zmm4, %zmm19
	vpmaxsq	%zmm17, %zmm4, %zmm4
	vpermq	$27, %zmm15, %zmm15
	vpminsq	%zmm8, %zmm9, %zmm17
	vpmaxsq	%zmm8, %zmm9, %zmm9
	vpminsq	%zmm16, %zmm7, %zmm8
	vpmaxsq	%zmm16, %zmm7, %zmm7
	vpmaxsq	%zmm10, %zmm14, %zmm16
	vpminsq	%zmm2, %zmm5, %zmm12
	vpminsq	%zmm10, %zmm14, %zmm16{%k2}
	vpermq	$27, %zmm13, %zmm10
	vpmaxsq	%zmm2, %zmm5, %zmm5
	vpminsq	%zmm6, %zmm1, %zmm2
	vpmaxsq	%zmm6, %zmm1, %zmm1
	vpminsq	%zmm15, %zmm0, %zmm6
	vpmaxsq	%zmm15, %zmm0, %zmm0
	vpmaxsq	%zmm10, %zmm13, %zmm15
	vpminsq	%zmm10, %zmm13, %zmm15{%k2}
	vpermq	$27, %zmm11, %zmm10
	vpmaxsq	%zmm10, %zmm11, %zmm14
	vpminsq	%zmm10, %zmm11, %zmm14{%k2}
	vpermq	$27, %zmm3, %zmm10
	vpmaxsq	%zmm10, %zmm3, %zmm11
	vpminsq	%zmm10, %zmm3, %zmm11{%k2}
	vpermq	$27, %zmm12, %zmm3
	vpmaxsq	%zmm3, %zmm12, %zmm13
	vpminsq	%zmm3, %zmm12, %zmm13{%k2}
	vpermq	$27, %zmm5, %zmm3
	vpmaxsq	%zmm3, %zmm5, %zmm12
	vpminsq	%zmm3, %zmm5, %zmm12{%k2}
	vpermq	$27, %zmm2, %zmm3
	vpmaxsq	%zmm3, %zmm2, %zmm10
	vpminsq	%zmm3, %zmm2, %zmm10{%k2}
	vpermq	$27, %zmm1, %zmm2
	vpmaxsq	%zmm2, %zmm1, %zmm5
	vpminsq	%zmm2, %zmm1, %zmm5{%k2}
	vpermq	$27, %zmm19, %zmm1
	vpmaxsq	%zmm1, %zmm19, %zmm3
	vpminsq	%zmm1, %zmm19, %zmm3{%k2}
	vpermq	$27, %zmm4, %zmm1
	vpmaxsq	%zmm1, %zmm4, %zmm2
	vpminsq	%zmm1, %zmm4, %zmm2{%k2}
	vpermq	$27, %zmm17, %zmm1
	vpmaxsq	%zmm1, %zmm17, %zmm4
	vpminsq	%zmm1, %zmm17, %zmm4{%k2}
	vpermq	$27, %zmm9, %zmm17
	vpmaxsq	%zmm17, %zmm9, %zmm1
	vpminsq	%zmm17, %zmm9, %zmm1{%k2}
	vpermq	$27, %zmm8, %zmm17
	vpmaxsq	%zmm17, %zmm8, %zmm9
	vpminsq	%zmm17, %zmm8, %zmm9{%k2}
	vpermq	$27, %zmm7, %zmm17
	vpmaxsq	%zmm17, %zmm7, %zmm8
	vpminsq	%zmm17, %zmm7, %zmm8{%k2}
	vpermq	$27, %zmm6, %zmm17
	vpmaxsq	%zmm17, %zmm6, %zmm7
	vpminsq	%zmm17, %zmm6, %zmm7{%k2}
	vpermq	$27, %zmm0, %zmm17
	vpmaxsq	%zmm17, %zmm0, %zmm6
	vpminsq	%zmm17, %zmm0, %zmm6{%k2}
	vpshufd	$78, %zmm16, %zmm0
	vpmaxsq	%zmm0, %zmm16, %zmm17
	vpminsq	%zmm0, %zmm16, %zmm17{%k1}
	vpshufd	$78, %zmm15, %zmm0
	vpmaxsq	%zmm0, %zmm15, %zmm16
	vpminsq	%zmm0, %zmm15, %zmm16{%k1}
	vpshufd	$78, %zmm14, %zmm0
	vpmaxsq	%zmm0, %zmm14, %zmm15
	vpminsq	%zmm0, %zmm14, %zmm15{%k1}
	vpshufd	$78, %zmm11, %zmm0
	vpmaxsq	%zmm0, %zmm11, %zmm14
	vpminsq	%zmm0, %zmm11, %zmm14{%k1}
	vpshufd	$78, %zmm13, %zmm0
	vpmaxsq	%zmm0, %zmm13, %zmm11
	vpminsq	%zmm0, %zmm13, %zmm11{%k1}
	vpshufd	$78, %zmm12, %zmm0
	vpmaxsq	%zmm0, %zmm12, %zmm13
	vpminsq	%zmm0, %zmm12, %zmm13{%k1}
	vpshufd	$78, %zmm10, %zmm0
	vpmaxsq	%zmm0, %zmm10, %zmm12
	vpminsq	%zmm0, %zmm10, %zmm12{%k1}
	vpshufd	$78, %zmm5, %zmm0
	vpmaxsq	%zmm0, %zmm5, %zmm10
	vpminsq	%zmm0, %zmm5, %zmm10{%k1}
	vpshufd	$78, %zmm3, %zmm0
	vpmaxsq	%zmm0, %zmm3, %zmm5
	vpminsq	%zmm0, %zmm3, %zmm5{%k1}
	vpshufd	$78, %zmm2, %zmm0
	vpmaxsq	%zmm0, %zmm2, %zmm3
	vpminsq	%zmm0, %zmm2, %zmm3{%k1}
	vpshufd	$78, %zmm4, %zmm0
	vpmaxsq	%zmm0, %zmm4, %zmm2
	vpminsq	%zmm0, %zmm4, %zmm2{%k1}
	vpshufd	$78, %zmm1, %zmm0
	vpmaxsq	%zmm0, %zmm1, %zmm4
	vpminsq	%zmm0, %zmm1, %zmm4{%k1}
	vpshufd	$78, %zmm9, %zmm0
	vpmaxsq	%zmm0, %zmm9, %zmm1
	vpminsq	%zmm0, %zmm9, %zmm1{%k1}
	vpshufd	$78, %zmm8, %zmm9
	vpmaxsq	%zmm9, %zmm8, %zmm0
	vpminsq	%zmm9, %zmm8, %zmm0{%k1}
	vpshufd	$78, %zmm7, %zmm9
	vpmaxsq	%zmm9, %zmm7, %zmm8
	vpminsq	%zmm9, %zmm7, %zmm8{%k1}
	vpshufd	$78, %zmm6, %zmm9
	vpmaxsq	%zmm9, %zmm6, %zmm7
	vpminsq	%zmm9, %zmm6, %zmm7{%k1}
	jbe	.L170
	vmovdqa64	.LC2(%rip), %zmm6
	movl	$65535, %r15d
	kmovd	%r15d, %k3
	vpermq	%zmm7, %zmm6, %zmm7
	vpermq	%zmm5, %zmm6, %zmm5
	vpermq	%zmm3, %zmm6, %zmm3
	vpermq	%zmm2, %zmm6, %zmm2
	vpermq	%zmm4, %zmm6, %zmm4
	vpermq	%zmm1, %zmm6, %zmm1
	vpermq	%zmm0, %zmm6, %zmm0
	vpermq	%zmm8, %zmm6, %zmm8
	vpminsq	%zmm7, %zmm17, %zmm9
	vpmaxsq	%zmm7, %zmm17, %zmm19
	vpminsq	%zmm8, %zmm16, %zmm7
	vpmaxsq	%zmm8, %zmm16, %zmm8
	vpminsq	%zmm0, %zmm15, %zmm16
	vpmaxsq	%zmm0, %zmm15, %zmm0
	vpminsq	%zmm1, %zmm14, %zmm15
	vpermq	%zmm8, %zmm6, %zmm8
	vpmaxsq	%zmm1, %zmm14, %zmm1
	vpminsq	%zmm4, %zmm11, %zmm14
	vpermq	%zmm0, %zmm6, %zmm0
	vpmaxsq	%zmm4, %zmm11, %zmm4
	vpminsq	%zmm2, %zmm13, %zmm11
	vpermq	%zmm14, %zmm6, %zmm14
	vpmaxsq	%zmm2, %zmm13, %zmm2
	vpminsq	%zmm3, %zmm12, %zmm13
	vpermq	%zmm11, %zmm6, %zmm11
	vpmaxsq	%zmm3, %zmm12, %zmm3
	vpminsq	%zmm5, %zmm10, %zmm12
	vpermq	%zmm13, %zmm6, %zmm17
	vpmaxsq	%zmm5, %zmm10, %zmm5
	vpermq	%zmm19, %zmm6, %zmm13
	vpermq	%zmm12, %zmm6, %zmm12
	vpminsq	%zmm12, %zmm9, %zmm10
	vpmaxsq	%zmm12, %zmm9, %zmm19
	vpermq	%zmm1, %zmm6, %zmm1
	vpminsq	%zmm13, %zmm5, %zmm12
	vpmaxsq	%zmm13, %zmm5, %zmm20
	vpminsq	%zmm8, %zmm3, %zmm9
	vpminsq	%zmm17, %zmm7, %zmm13
	vpminsq	%zmm11, %zmm16, %zmm5
	vpmaxsq	%zmm17, %zmm7, %zmm7
	vpmaxsq	%zmm8, %zmm3, %zmm17
	vpmaxsq	%zmm11, %zmm16, %zmm3
	vpermq	%zmm19, %zmm6, %zmm11
	vpminsq	%zmm14, %zmm15, %zmm16
	vpminsq	%zmm0, %zmm2, %zmm8
	vpmaxsq	%zmm14, %zmm15, %zmm14
	vpermq	%zmm16, %zmm6, %zmm16
	vpermq	%zmm5, %zmm6, %zmm15
	vpmaxsq	%zmm0, %zmm2, %zmm0
	vpminsq	%zmm1, %zmm4, %zmm2
	vpermq	%zmm20, %zmm6, %zmm5
	vpminsq	%zmm16, %zmm10, %zmm19
	vpmaxsq	%zmm1, %zmm4, %zmm1
	vpermq	%zmm7, %zmm6, %zmm4
	vpermq	%zmm8, %zmm6, %zmm7
	vpermq	%zmm2, %zmm6, %zmm8
	vpermq	%zmm17, %zmm6, %zmm2
	vpmaxsq	%zmm16, %zmm10, %zmm17
	vpminsq	%zmm15, %zmm13, %zmm16
	vpminsq	%zmm11, %zmm14, %zmm10
	vpmaxsq	%zmm15, %zmm13, %zmm13
	vpmaxsq	%zmm8, %zmm12, %zmm20
	vpmaxsq	%zmm11, %zmm14, %zmm15
	vpermq	%zmm16, %zmm6, %zmm11
	vpminsq	%zmm4, %zmm3, %zmm14
	vpmaxsq	%zmm5, %zmm1, %zmm22
	vpmaxsq	%zmm4, %zmm3, %zmm3
	vpminsq	%zmm2, %zmm0, %zmm21
	vpermq	%zmm22, %zmm6, %zmm16
	vpminsq	%zmm8, %zmm12, %zmm4
	vpminsq	%zmm7, %zmm9, %zmm8
	vpermq	%zmm17, %zmm6, %zmm12
	vpmaxsq	%zmm7, %zmm9, %zmm9
	vpermq	%zmm21, %zmm6, %zmm17
	vpminsq	%zmm5, %zmm1, %zmm7
	vpmaxsq	%zmm2, %zmm0, %zmm0
	vpermq	%zmm14, %zmm6, %zmm5
	vpermq	%zmm15, %zmm6, %zmm2
	vpermq	%zmm8, %zmm6, %zmm1
	vpminsq	%zmm11, %zmm19, %zmm15
	vpermq	%zmm20, %zmm6, %zmm8
	vpmaxsq	%zmm11, %zmm19, %zmm14
	vpminsq	%zmm12, %zmm13, %zmm11
	vpmaxsq	%zmm12, %zmm13, %zmm13
	vpminsq	%zmm5, %zmm10, %zmm12
	vpmaxsq	%zmm5, %zmm10, %zmm10
	vpminsq	%zmm2, %zmm3, %zmm5
	vpmaxsq	%zmm2, %zmm3, %zmm3
	vpminsq	%zmm1, %zmm4, %zmm2
	vpmaxsq	%zmm1, %zmm4, %zmm4
	vpminsq	%zmm8, %zmm9, %zmm1
	vpmaxsq	%zmm8, %zmm9, %zmm9
	vpminsq	%zmm17, %zmm7, %zmm8
	vpmaxsq	%zmm17, %zmm7, %zmm7
	vpminsq	%zmm16, %zmm0, %zmm17
	vpmaxsq	%zmm16, %zmm0, %zmm0
	vpermq	%zmm15, %zmm6, %zmm16
	vpminsq	%zmm16, %zmm15, %zmm19
	vpmaxsq	%zmm16, %zmm15, %zmm15
	vpermq	%zmm14, %zmm6, %zmm16
	vmovdqu16	%zmm19, %zmm15{%k3}
	vpminsq	%zmm16, %zmm14, %zmm19
	vpmaxsq	%zmm16, %zmm14, %zmm14
	vpermq	%zmm11, %zmm6, %zmm16
	vmovdqu16	%zmm19, %zmm14{%k3}
	vpminsq	%zmm16, %zmm11, %zmm19
	vpmaxsq	%zmm16, %zmm11, %zmm11
	vpermq	%zmm13, %zmm6, %zmm16
	vmovdqu16	%zmm19, %zmm11{%k3}
	vpminsq	%zmm16, %zmm13, %zmm19
	vpmaxsq	%zmm16, %zmm13, %zmm13
	vpermq	%zmm12, %zmm6, %zmm16
	vmovdqu16	%zmm19, %zmm13{%k3}
	vpminsq	%zmm16, %zmm12, %zmm19
	vpmaxsq	%zmm16, %zmm12, %zmm12
	vpermq	%zmm10, %zmm6, %zmm16
	vmovdqu16	%zmm19, %zmm12{%k3}
	vpminsq	%zmm16, %zmm10, %zmm19
	vpmaxsq	%zmm16, %zmm10, %zmm10
	vpermq	%zmm5, %zmm6, %zmm16
	vmovdqu16	%zmm19, %zmm10{%k3}
	vpminsq	%zmm16, %zmm5, %zmm19
	vpmaxsq	%zmm16, %zmm5, %zmm5
	vpermq	%zmm3, %zmm6, %zmm16
	vmovdqu16	%zmm19, %zmm5{%k3}
	vpminsq	%zmm16, %zmm3, %zmm19
	vpmaxsq	%zmm16, %zmm3, %zmm3
	vpermq	%zmm2, %zmm6, %zmm16
	vmovdqu16	%zmm19, %zmm3{%k3}
	vpminsq	%zmm16, %zmm2, %zmm19
	vpmaxsq	%zmm16, %zmm2, %zmm2
	vpermq	%zmm4, %zmm6, %zmm16
	vmovdqu16	%zmm19, %zmm2{%k3}
	vpminsq	%zmm16, %zmm4, %zmm19
	vpmaxsq	%zmm16, %zmm4, %zmm4
	vpermq	%zmm1, %zmm6, %zmm16
	vmovdqu16	%zmm19, %zmm4{%k3}
	vpminsq	%zmm16, %zmm1, %zmm19
	vpmaxsq	%zmm16, %zmm1, %zmm1
	vpermq	%zmm9, %zmm6, %zmm16
	vmovdqu16	%zmm19, %zmm1{%k3}
	vpminsq	%zmm16, %zmm9, %zmm19
	vpmaxsq	%zmm16, %zmm9, %zmm9
	vpermq	%zmm8, %zmm6, %zmm16
	vmovdqu16	%zmm19, %zmm9{%k3}
	vpminsq	%zmm16, %zmm8, %zmm19
	vpmaxsq	%zmm16, %zmm8, %zmm8
	vpermq	%zmm7, %zmm6, %zmm16
	vmovdqu16	%zmm19, %zmm8{%k3}
	vpminsq	%zmm16, %zmm7, %zmm19
	vpmaxsq	%zmm16, %zmm7, %zmm7
	vpermq	%zmm17, %zmm6, %zmm16
	vpermq	%zmm0, %zmm6, %zmm6
	vmovdqu16	%zmm19, %zmm7{%k3}
	vpminsq	%zmm16, %zmm17, %zmm19
	vpmaxsq	%zmm16, %zmm17, %zmm17
	vpminsq	%zmm6, %zmm0, %zmm16
	vpmaxsq	%zmm6, %zmm0, %zmm0
	vshufi32x4	$177, %zmm15, %zmm15, %zmm6
	vmovdqu16	%zmm16, %zmm0{%k3}
	vpmaxsq	%zmm15, %zmm6, %zmm16
	vmovdqu16	%zmm19, %zmm17{%k3}
	vpminsq	%zmm15, %zmm6, %zmm16{%k2}
	vshufi32x4	$177, %zmm14, %zmm14, %zmm6
	vpmaxsq	%zmm14, %zmm6, %zmm15
	vpminsq	%zmm14, %zmm6, %zmm15{%k2}
	vshufi32x4	$177, %zmm11, %zmm11, %zmm6
	vpmaxsq	%zmm11, %zmm6, %zmm14
	vpminsq	%zmm11, %zmm6, %zmm14{%k2}
	vshufi32x4	$177, %zmm13, %zmm13, %zmm6
	vpmaxsq	%zmm13, %zmm6, %zmm11
	vpminsq	%zmm13, %zmm6, %zmm11{%k2}
	vshufi32x4	$177, %zmm12, %zmm12, %zmm6
	vpmaxsq	%zmm12, %zmm6, %zmm13
	vpminsq	%zmm12, %zmm6, %zmm13{%k2}
	vshufi32x4	$177, %zmm10, %zmm10, %zmm6
	vpmaxsq	%zmm10, %zmm6, %zmm12
	vpminsq	%zmm10, %zmm6, %zmm12{%k2}
	vshufi32x4	$177, %zmm5, %zmm5, %zmm6
	vpmaxsq	%zmm5, %zmm6, %zmm10
	vpminsq	%zmm5, %zmm6, %zmm10{%k2}
	vshufi32x4	$177, %zmm3, %zmm3, %zmm6
	vpmaxsq	%zmm3, %zmm6, %zmm5
	vpminsq	%zmm3, %zmm6, %zmm5{%k2}
	vshufi32x4	$177, %zmm2, %zmm2, %zmm6
	vpmaxsq	%zmm2, %zmm6, %zmm3
	vpminsq	%zmm2, %zmm6, %zmm3{%k2}
	vshufi32x4	$177, %zmm4, %zmm4, %zmm6
	vpmaxsq	%zmm4, %zmm6, %zmm2
	vpminsq	%zmm4, %zmm6, %zmm2{%k2}
	vshufi32x4	$177, %zmm1, %zmm1, %zmm6
	vpmaxsq	%zmm1, %zmm6, %zmm4
	vpminsq	%zmm1, %zmm6, %zmm4{%k2}
	vshufi32x4	$177, %zmm9, %zmm9, %zmm6
	vpmaxsq	%zmm9, %zmm6, %zmm1
	vpminsq	%zmm9, %zmm6, %zmm1{%k2}
	vshufi32x4	$177, %zmm8, %zmm8, %zmm6
	vpmaxsq	%zmm8, %zmm6, %zmm9
	vpminsq	%zmm8, %zmm6, %zmm9{%k2}
	vshufi32x4	$177, %zmm7, %zmm7, %zmm6
	vpmaxsq	%zmm7, %zmm6, %zmm8
	vpminsq	%zmm7, %zmm6, %zmm8{%k2}
	vshufi32x4	$177, %zmm17, %zmm17, %zmm6
	vpmaxsq	%zmm17, %zmm6, %zmm7
	vpminsq	%zmm17, %zmm6, %zmm7{%k2}
	vshufi32x4	$177, %zmm0, %zmm0, %zmm17
	vpmaxsq	%zmm0, %zmm17, %zmm6
	vpminsq	%zmm0, %zmm17, %zmm6{%k2}
	vpshufd	$78, %zmm16, %zmm0
	vpmaxsq	%zmm0, %zmm16, %zmm17
	vpminsq	%zmm0, %zmm16, %zmm17{%k1}
	vpshufd	$78, %zmm15, %zmm0
	vpmaxsq	%zmm0, %zmm15, %zmm16
	vpminsq	%zmm0, %zmm15, %zmm16{%k1}
	vpshufd	$78, %zmm14, %zmm0
	vpmaxsq	%zmm0, %zmm14, %zmm15
	vpminsq	%zmm0, %zmm14, %zmm15{%k1}
	vpshufd	$78, %zmm11, %zmm0
	vpmaxsq	%zmm0, %zmm11, %zmm14
	vpminsq	%zmm0, %zmm11, %zmm14{%k1}
	vpshufd	$78, %zmm13, %zmm0
	vpmaxsq	%zmm0, %zmm13, %zmm11
	vpminsq	%zmm0, %zmm13, %zmm11{%k1}
	vpshufd	$78, %zmm12, %zmm0
	vpmaxsq	%zmm0, %zmm12, %zmm13
	vpminsq	%zmm0, %zmm12, %zmm13{%k1}
	vpshufd	$78, %zmm10, %zmm0
	vpmaxsq	%zmm0, %zmm10, %zmm12
	vpminsq	%zmm0, %zmm10, %zmm12{%k1}
	vpshufd	$78, %zmm5, %zmm0
	vpmaxsq	%zmm0, %zmm5, %zmm10
	vpminsq	%zmm0, %zmm5, %zmm10{%k1}
	vpshufd	$78, %zmm3, %zmm0
	vpmaxsq	%zmm0, %zmm3, %zmm5
	vpminsq	%zmm0, %zmm3, %zmm5{%k1}
	vpshufd	$78, %zmm2, %zmm0
	vpmaxsq	%zmm0, %zmm2, %zmm3
	vpminsq	%zmm0, %zmm2, %zmm3{%k1}
	vpshufd	$78, %zmm4, %zmm0
	vpmaxsq	%zmm0, %zmm4, %zmm2
	vpminsq	%zmm0, %zmm4, %zmm2{%k1}
	vpshufd	$78, %zmm1, %zmm0
	vpmaxsq	%zmm0, %zmm1, %zmm4
	vpminsq	%zmm0, %zmm1, %zmm4{%k1}
	vpshufd	$78, %zmm9, %zmm0
	vpmaxsq	%zmm0, %zmm9, %zmm1
	vpminsq	%zmm0, %zmm9, %zmm1{%k1}
	vpshufd	$78, %zmm8, %zmm9
	vpmaxsq	%zmm9, %zmm8, %zmm0
	vpminsq	%zmm9, %zmm8, %zmm0{%k1}
	vpshufd	$78, %zmm7, %zmm9
	vpmaxsq	%zmm9, %zmm7, %zmm8
	vpminsq	%zmm9, %zmm7, %zmm8{%k1}
	vpshufd	$78, %zmm6, %zmm9
	vpmaxsq	%zmm9, %zmm6, %zmm7
	vpminsq	%zmm9, %zmm6, %zmm7{%k1}
.L170:
	vmovdqu64	%zmm17, (%rdi)
	vmovq	%xmm18, %rdi
	vmovdqu64	%zmm16, (%rdi)
	vmovdqu64	%zmm15, (%r14)
	vmovdqu64	%zmm14, 0(%r13)
	vmovdqu64	%zmm11, (%r12)
	vmovdqu64	%zmm13, (%rbx)
	vmovq	%xmm23, %rbx
	vmovdqu64	%zmm12, (%r11)
	vmovdqu64	%zmm10, (%r10)
	vmovdqu64	%zmm5, (%r9)
	vmovdqu64	%zmm3, (%r8)
	vmovdqu64	%zmm2, (%rbx)
	vmovdqu64	%zmm4, (%rsi)
	vmovdqu64	%zmm1, (%rcx)
	vmovdqu64	%zmm0, (%rdx)
	vmovdqu64	%zmm8, (%rax)
	movq	-16(%rsp), %rax
	vmovdqu64	%zmm7, (%rax)
	vzeroupper
	leaq	-40(%rbp), %rsp
	popq	%rbx
	popq	%r12
	popq	%r13
	popq	%r14
	popq	%r15
	popq	%rbp
	.cfi_def_cfa 7, 8
	ret
	.cfi_endproc
.LFE18788:
	.size	_ZN3hwy6N_AVX36detail14SortingNetworkINS1_12SharedTraitsINS1_10TraitsLaneINS1_14OrderAscendingIlEEEEEElEEvT_PT0_m.isra.0, .-_ZN3hwy6N_AVX36detail14SortingNetworkINS1_12SharedTraitsINS1_10TraitsLaneINS1_14OrderAscendingIlEEEEEElEEvT_PT0_m.isra.0
	.section	.text._ZN3hwy6N_AVX26detail22MaybePartitionTwoValueINS0_4SimdIlLm4ELi0EEENS1_12SharedTraitsINS1_10TraitsLaneINS1_14OrderAscendingIlEEEEEElEEbT_T0_PT1_mDTcl4ZerocvSB__EEESF_RSF_SE_.isra.0,"ax",@progbits
	.p2align 4
	.type	_ZN3hwy6N_AVX26detail22MaybePartitionTwoValueINS0_4SimdIlLm4ELi0EEENS1_12SharedTraitsINS1_10TraitsLaneINS1_14OrderAscendingIlEEEEEElEEbT_T0_PT1_mDTcl4ZerocvSB__EEESF_RSF_SE_.isra.0, @function
_ZN3hwy6N_AVX26detail22MaybePartitionTwoValueINS0_4SimdIlLm4ELi0EEENS1_12SharedTraitsINS1_10TraitsLaneINS1_14OrderAscendingIlEEEEEElEEbT_T0_PT1_mDTcl4ZerocvSB__EEESF_RSF_SE_.isra.0:
.LFB18789:
	.cfi_startproc
	pushq	%rbp
	.cfi_def_cfa_offset 16
	.cfi_offset 6, -16
	vmovdqa	%ymm0, %ymm3
	movq	%rsp, %rbp
	.cfi_def_cfa_register 6
	pushq	%r15
	.cfi_offset 15, -24
	movq	%rdx, %r15
	pushq	%r14
	.cfi_offset 14, -32
	movq	%rsi, %r14
	pushq	%r13
	pushq	%r12
	.cfi_offset 13, -40
	.cfi_offset 12, -48
	movq	%rdi, %r12
	pushq	%rbx
	andq	$-32, %rsp
	subq	$96, %rsp
	.cfi_offset 3, -56
	cmpq	$3, %rsi
	jbe	.L187
	movl	$4, %r13d
	xorl	%ebx, %ebx
	jmp	.L178
	.p2align 4,,10
	.p2align 3
.L174:
	vmovmskpd	%ymm2, %eax
	vmovdqu	%ymm3, (%rsi)
	popcntq	%rax, %rax
	addq	%rax, %rbx
	leaq	4(%r13), %rax
	cmpq	%r14, %rax
	ja	.L195
	movq	%rax, %r13
.L178:
	vpcmpeqq	-32(%r12,%r13,8), %ymm3, %ymm2
	vpcmpeqq	-32(%r12,%r13,8), %ymm1, %ymm0
	leaq	-4(%r13), %rdx
	leaq	(%r12,%rbx,8), %rsi
	vpor	%ymm0, %ymm2, %ymm4
	vmovmskpd	%ymm4, %eax
	cmpl	$15, %eax
	je	.L174
	vpcmpeqd	%ymm3, %ymm3, %ymm3
	vpxor	%ymm3, %ymm0, %ymm0
	vpandn	%ymm0, %ymm2, %ymm2
	vmovmskpd	%ymm2, %eax
	tzcntl	%eax, %eax
	addq	%rdx, %rax
	vpbroadcastq	(%r12,%rax,8), %ymm0
	leaq	4(%rbx), %rax
	vmovdqa	%ymm0, (%r15)
	cmpq	%rax, %rdx
	jb	.L175
	.p2align 4,,10
	.p2align 3
.L176:
	vmovdqu	%ymm1, -32(%r12,%rax,8)
	movq	%rax, %rbx
	addq	$4, %rax
	cmpq	%rdx, %rax
	jbe	.L176
.L175:
	subq	%rbx, %rdx
	xorl	%eax, %eax
	vmovq	%rdx, %xmm7
	vpbroadcastq	%xmm7, %ymm0
	vpcmpgtq	.LC3(%rip), %ymm0, %ymm0
	vpmaskmovq	%ymm1, %ymm0, (%r12,%rbx,8)
.L172:
	leaq	-40(%rbp), %rsp
	popq	%rbx
	popq	%r12
	popq	%r13
	popq	%r14
	popq	%r15
	popq	%rbp
	.cfi_remember_state
	.cfi_def_cfa 7, 8
	ret
	.p2align 4,,10
	.p2align 3
.L195:
	.cfi_restore_state
	movq	%r14, %r8
	leaq	0(,%r13,8), %rsi
	leaq	(%r12,%rbx,8), %r9
	subq	%r13, %r8
.L173:
	testq	%r8, %r8
	je	.L182
	leaq	0(,%r8,8), %rdx
	addq	%r12, %rsi
	movq	%rcx, %rdi
	movq	%r9, 80(%rsp)
	movq	%r8, 88(%rsp)
	vmovdqa	%ymm1, (%rsp)
	vmovdqa	%ymm3, 32(%rsp)
	vzeroupper
	call	memcpy@PLT
	movq	88(%rsp), %r8
	movq	80(%rsp), %r9
	vmovdqa	32(%rsp), %ymm3
	vmovdqa	(%rsp), %ymm1
	movq	%rax, %rcx
.L182:
	vmovdqa	(%rcx), %ymm0
	vmovq	%r8, %xmm6
	vmovdqa	.LC3(%rip), %ymm5
	vpbroadcastq	%xmm6, %ymm2
	vpcmpeqq	%ymm3, %ymm0, %ymm4
	vpcmpgtq	%ymm5, %ymm2, %ymm2
	vpcmpeqq	%ymm1, %ymm0, %ymm0
	vpand	%ymm2, %ymm4, %ymm7
	vpor	%ymm4, %ymm0, %ymm0
	vpcmpeqd	%ymm4, %ymm4, %ymm4
	vpxor	%ymm4, %ymm2, %ymm6
	vpor	%ymm6, %ymm0, %ymm0
	vmovmskpd	%ymm0, %eax
	cmpl	$15, %eax
	jne	.L196
	vmovmskpd	%ymm7, %edx
	vpmaskmovq	%ymm3, %ymm2, (%r9)
	popcntq	%rdx, %rdx
	addq	%rbx, %rdx
	leaq	4(%rdx), %rax
	cmpq	%rax, %r14
	jb	.L185
	.p2align 4,,10
	.p2align 3
.L186:
	vmovdqu	%ymm1, -32(%r12,%rax,8)
	movq	%rax, %rdx
	addq	$4, %rax
	cmpq	%rax, %r14
	jnb	.L186
.L185:
	subq	%rdx, %r14
	movl	$1, %eax
	vmovq	%r14, %xmm6
	vpbroadcastq	%xmm6, %ymm0
	vpcmpgtq	%ymm5, %ymm0, %ymm0
	vpmaskmovq	%ymm1, %ymm0, (%r12,%rdx,8)
	leaq	-40(%rbp), %rsp
	popq	%rbx
	popq	%r12
	popq	%r13
	popq	%r14
	popq	%r15
	popq	%rbp
	.cfi_remember_state
	.cfi_def_cfa 7, 8
	ret
.L187:
	.cfi_restore_state
	movq	%rsi, %r8
	movq	%rdi, %r9
	xorl	%esi, %esi
	xorl	%ebx, %ebx
	xorl	%r13d, %r13d
	jmp	.L173
.L196:
	vpxor	%ymm4, %ymm0, %ymm0
	vmovmskpd	%ymm0, %eax
	tzcntl	%eax, %eax
	addq	%r13, %rax
	vpbroadcastq	(%r12,%rax,8), %ymm0
	leaq	4(%rbx), %rax
	vmovdqa	%ymm0, (%r15)
	cmpq	%r13, %rax
	ja	.L183
	.p2align 4,,10
	.p2align 3
.L184:
	vmovdqu	%ymm1, -32(%r12,%rax,8)
	movq	%rax, %rbx
	leaq	4(%rax), %rax
	cmpq	%r13, %rax
	jbe	.L184
	leaq	(%r12,%rbx,8), %r9
.L183:
	subq	%rbx, %r13
	xorl	%eax, %eax
	vmovq	%r13, %xmm7
	vpbroadcastq	%xmm7, %ymm0
	vpcmpgtq	%ymm5, %ymm0, %ymm0
	vpmaskmovq	%ymm1, %ymm0, (%r9)
	jmp	.L172
	.cfi_endproc
.LFE18789:
	.size	_ZN3hwy6N_AVX26detail22MaybePartitionTwoValueINS0_4SimdIlLm4ELi0EEENS1_12SharedTraitsINS1_10TraitsLaneINS1_14OrderAscendingIlEEEEEElEEbT_T0_PT1_mDTcl4ZerocvSB__EEESF_RSF_SE_.isra.0, .-_ZN3hwy6N_AVX26detail22MaybePartitionTwoValueINS0_4SimdIlLm4ELi0EEENS1_12SharedTraitsINS1_10TraitsLaneINS1_14OrderAscendingIlEEEEEElEEbT_T0_PT1_mDTcl4ZerocvSB__EEESF_RSF_SE_.isra.0
	.section	.text._ZN3hwy6N_AVX26detail8SiftDownINS1_12SharedTraitsINS1_10TraitsLaneINS1_14OrderAscendingIlEEEEEElEEvT_PT0_mm.isra.0,"ax",@progbits
	.p2align 4
	.type	_ZN3hwy6N_AVX26detail8SiftDownINS1_12SharedTraitsINS1_10TraitsLaneINS1_14OrderAscendingIlEEEEEElEEvT_PT0_mm.isra.0, @function
_ZN3hwy6N_AVX26detail8SiftDownINS1_12SharedTraitsINS1_10TraitsLaneINS1_14OrderAscendingIlEEEEEElEEvT_PT0_mm.isra.0:
.LFB18790:
	.cfi_startproc
	cmpq	%rdx, %rsi
	jbe	.L210
	leaq	(%rdx,%rdx), %rcx
	leaq	1(%rdx), %r8
	leaq	1(%rcx), %rax
	addq	$2, %rcx
	cmpq	%rax, %rsi
	jbe	.L210
	movq	(%rdi,%rdx,8), %r11
	vmovq	%r11, %xmm4
	vpunpcklqdq	%xmm4, %xmm4, %xmm0
	jmp	.L200
	.p2align 4,,10
	.p2align 3
.L201:
	cmpq	%rcx, %rsi
	jbe	.L210
	movq	%rdx, %rax
.L206:
	salq	$4, %r8
	vmovddup	(%rdi,%r8), %xmm1
	vpcmpgtq	%xmm3, %xmm1, %xmm1
	vmovmskpd	%xmm1, %r8d
	andl	$1, %r8d
	jne	.L203
.L202:
	cmpq	%rdx, %rax
	je	.L210
	leaq	(%rdi,%rax,8), %rdx
	movq	(%rdx), %rcx
	movq	%rcx, (%r10)
	movq	%r11, (%rdx)
	cmpq	%rax, %rsi
	jbe	.L211
	movq	%rax, %rdx
.L204:
	leaq	(%rdx,%rdx), %rcx
	leaq	1(%rdx), %r8
	leaq	1(%rcx), %rax
	addq	$2, %rcx
	cmpq	%rsi, %rax
	jnb	.L210
.L200:
	vmovddup	(%rdi,%rax,8), %xmm1
	vpcmpgtq	%xmm0, %xmm1, %xmm2
	leaq	(%rdi,%rdx,8), %r10
	vmovdqa	%xmm0, %xmm3
	vmovmskpd	%xmm2, %r9d
	andl	$1, %r9d
	je	.L201
	cmpq	%rcx, %rsi
	jbe	.L202
	vmovdqa	%xmm1, %xmm3
	jmp	.L206
	.p2align 4,,10
	.p2align 3
.L203:
	cmpq	%rdx, %rcx
	je	.L212
	leaq	(%rdi,%rcx,8), %rax
	movq	(%rax), %rdx
	movq	%rdx, (%r10)
	movq	%rcx, %rdx
	movq	%r11, (%rax)
	jmp	.L204
	.p2align 4,,10
	.p2align 3
.L210:
	ret
	.p2align 4,,10
	.p2align 3
.L211:
	ret
.L212:
	ret
	.cfi_endproc
.LFE18790:
	.size	_ZN3hwy6N_AVX26detail8SiftDownINS1_12SharedTraitsINS1_10TraitsLaneINS1_14OrderAscendingIlEEEEEElEEvT_PT0_mm.isra.0, .-_ZN3hwy6N_AVX26detail8SiftDownINS1_12SharedTraitsINS1_10TraitsLaneINS1_14OrderAscendingIlEEEEEElEEvT_PT0_mm.isra.0
	.section	.text._ZN3hwy6N_SSE46detail22MaybePartitionTwoValueINS0_4SimdIlLm2ELi0EEENS1_12SharedTraitsINS1_10TraitsLaneINS1_14OrderAscendingIlEEEEEElEEbT_T0_PT1_mDTcl4ZerocvSB__EEESF_RSF_SE_.isra.0,"ax",@progbits
	.p2align 4
	.type	_ZN3hwy6N_SSE46detail22MaybePartitionTwoValueINS0_4SimdIlLm2ELi0EEENS1_12SharedTraitsINS1_10TraitsLaneINS1_14OrderAscendingIlEEEEEElEEbT_T0_PT1_mDTcl4ZerocvSB__EEESF_RSF_SE_.isra.0, @function
_ZN3hwy6N_SSE46detail22MaybePartitionTwoValueINS0_4SimdIlLm2ELi0EEENS1_12SharedTraitsINS1_10TraitsLaneINS1_14OrderAscendingIlEEEEEElEEbT_T0_PT1_mDTcl4ZerocvSB__EEESF_RSF_SE_.isra.0:
.LFB18791:
	.cfi_startproc
	pushq	%rbp
	.cfi_def_cfa_offset 16
	.cfi_offset 6, -16
	movdqa	%xmm0, %xmm3
	movq	%rsp, %rbp
	.cfi_def_cfa_register 6
	pushq	%r15
	.cfi_offset 15, -24
	movq	%rdx, %r15
	pushq	%r14
	.cfi_offset 14, -32
	movq	%rsi, %r14
	pushq	%r13
	.cfi_offset 13, -40
	movq	%rdi, %r13
	pushq	%r12
	pushq	%rbx
	subq	$56, %rsp
	.cfi_offset 12, -48
	.cfi_offset 3, -56
	cmpq	$1, %rsi
	jbe	.L236
	movl	$2, %r12d
	xorl	%ebx, %ebx
	jmp	.L221
	.p2align 4,,10
	.p2align 3
.L215:
	movmskpd	%xmm2, %eax
	movups	%xmm3, 0(%r13,%rbx,8)
	popcntq	%rax, %rax
	addq	%rax, %rbx
	leaq	2(%r12), %rax
	cmpq	%r14, %rax
	ja	.L268
	movq	%rax, %r12
.L221:
	movdqu	-16(%r13,%r12,8), %xmm2
	movdqu	-16(%r13,%r12,8), %xmm0
	leaq	-2(%r12), %rdx
	leaq	0(,%rbx,8), %rax
	pcmpeqq	%xmm3, %xmm2
	pcmpeqq	%xmm1, %xmm0
	movdqa	%xmm2, %xmm4
	por	%xmm0, %xmm4
	movmskpd	%xmm4, %esi
	cmpl	$3, %esi
	je	.L215
	pcmpeqd	%xmm3, %xmm3
	leaq	2(%rbx), %rdi
	pxor	%xmm3, %xmm0
	pandn	%xmm0, %xmm2
	movmskpd	%xmm2, %ecx
	rep bsfl	%ecx, %ecx
	movslq	%ecx, %rcx
	addq	%rdx, %rcx
	movddup	0(%r13,%rcx,8), %xmm0
	movaps	%xmm0, (%r15)
	cmpq	%rdx, %rdi
	ja	.L216
	movq	%rdx, %rcx
	addq	%r13, %rax
	subq	%rbx, %rcx
	leaq	-2(%rcx), %rsi
	movq	%rsi, %rcx
	andq	$-2, %rcx
	addq	%rbx, %rcx
	leaq	16(%r13,%rcx,8), %rcx
	.p2align 4,,10
	.p2align 3
.L217:
	movups	%xmm1, (%rax)
	addq	$16, %rax
	cmpq	%rcx, %rax
	jne	.L217
	andq	$-2, %rsi
	leaq	(%rsi,%rdi), %rbx
.L216:
	subq	%rbx, %rdx
	leaq	0(,%rbx,8), %rcx
	movq	%rdx, %xmm0
	punpcklqdq	%xmm0, %xmm0
	pcmpgtq	.LC0(%rip), %xmm0
	movq	%xmm0, %rax
	testq	%rax, %rax
	je	.L218
	movq	%xmm1, 0(%r13,%rbx,8)
.L218:
	pextrq	$1, %xmm0, %rax
	testq	%rax, %rax
	jne	.L269
.L229:
	addq	$56, %rsp
	xorl	%eax, %eax
	popq	%rbx
	popq	%r12
	popq	%r13
	popq	%r14
	popq	%r15
	popq	%rbp
	.cfi_remember_state
	.cfi_def_cfa 7, 8
	ret
	.p2align 4,,10
	.p2align 3
.L269:
	.cfi_restore_state
	pextrq	$1, %xmm1, 8(%r13,%rcx)
	jmp	.L229
	.p2align 4,,10
	.p2align 3
.L268:
	movq	%r14, %r8
	leaq	0(,%r12,8), %rsi
	leaq	0(,%rbx,8), %r9
	subq	%r12, %r8
.L214:
	testq	%r8, %r8
	je	.L225
	leaq	0(,%r8,8), %rdx
	movq	%rcx, %rdi
	addq	%r13, %rsi
	movq	%r9, -64(%rbp)
	movq	%r8, -56(%rbp)
	movaps	%xmm1, -96(%rbp)
	movaps	%xmm3, -80(%rbp)
	call	memcpy@PLT
	movq	-56(%rbp), %r8
	movq	-64(%rbp), %r9
	movdqa	-80(%rbp), %xmm3
	movdqa	-96(%rbp), %xmm1
	movq	%rax, %rcx
.L225:
	movdqa	(%rcx), %xmm0
	movdqa	.LC0(%rip), %xmm4
	movq	%r8, %xmm2
	punpcklqdq	%xmm2, %xmm2
	movdqa	%xmm0, %xmm5
	pcmpgtq	%xmm4, %xmm2
	pcmpeqq	%xmm3, %xmm5
	pcmpeqq	%xmm1, %xmm0
	movdqa	%xmm2, %xmm6
	movdqa	%xmm5, %xmm7
	por	%xmm5, %xmm0
	pcmpeqd	%xmm5, %xmm5
	pxor	%xmm5, %xmm6
	pand	%xmm2, %xmm7
	por	%xmm6, %xmm0
	movmskpd	%xmm0, %eax
	cmpl	$3, %eax
	jne	.L270
	movq	%xmm2, %rax
	testq	%rax, %rax
	je	.L230
	movq	%xmm3, 0(%r13,%r9)
.L230:
	pextrq	$1, %xmm2, %rax
	testq	%rax, %rax
	jne	.L271
.L231:
	movmskpd	%xmm7, %edx
	popcntq	%rdx, %rdx
	addq	%rbx, %rdx
	leaq	2(%rdx), %rax
	cmpq	%rax, %r14
	jb	.L232
	.p2align 4,,10
	.p2align 3
.L233:
	movups	%xmm1, -16(%r13,%rax,8)
	movq	%rax, %rdx
	addq	$2, %rax
	cmpq	%rax, %r14
	jnb	.L233
.L232:
	subq	%rdx, %r14
	leaq	0(,%rdx,8), %rcx
	movq	%r14, %xmm0
	punpcklqdq	%xmm0, %xmm0
	pcmpgtq	%xmm4, %xmm0
	movq	%xmm0, %rax
	testq	%rax, %rax
	je	.L234
	movq	%xmm1, 0(%r13,%rdx,8)
.L234:
	pextrq	$1, %xmm0, %rax
	testq	%rax, %rax
	je	.L235
	pextrq	$1, %xmm1, 8(%r13,%rcx)
.L235:
	addq	$56, %rsp
	movl	$1, %eax
	popq	%rbx
	popq	%r12
	popq	%r13
	popq	%r14
	popq	%r15
	popq	%rbp
	.cfi_remember_state
	.cfi_def_cfa 7, 8
	ret
	.p2align 4,,10
	.p2align 3
.L271:
	.cfi_restore_state
	pextrq	$1, %xmm3, 8(%r13,%r9)
	jmp	.L231
.L236:
	movq	%rsi, %r8
	xorl	%r9d, %r9d
	xorl	%esi, %esi
	xorl	%ebx, %ebx
	xorl	%r12d, %r12d
	jmp	.L214
.L270:
	pxor	%xmm5, %xmm0
	leaq	2(%rbx), %rsi
	movmskpd	%xmm0, %eax
	rep bsfl	%eax, %eax
	cltq
	addq	%r12, %rax
	movddup	0(%r13,%rax,8), %xmm0
	movaps	%xmm0, (%r15)
	cmpq	%r12, %rsi
	ja	.L226
	leaq	-2(%r12), %rcx
	leaq	0(%r13,%rbx,8), %rax
	subq	%rbx, %rcx
	movq	%rcx, %rdx
	andq	$-2, %rdx
	addq	%rbx, %rdx
	leaq	16(%r13,%rdx,8), %rdx
	.p2align 4,,10
	.p2align 3
.L227:
	movups	%xmm1, (%rax)
	addq	$16, %rax
	cmpq	%rax, %rdx
	jne	.L227
	andq	$-2, %rcx
	leaq	(%rcx,%rsi), %rbx
	leaq	0(,%rbx,8), %r9
.L226:
	subq	%rbx, %r12
	movq	%r12, %xmm0
	punpcklqdq	%xmm0, %xmm0
	pcmpgtq	%xmm4, %xmm0
	movq	%xmm0, %rax
	testq	%rax, %rax
	je	.L228
	movq	%xmm1, 0(%r13,%r9)
.L228:
	pextrq	$1, %xmm0, %rax
	testq	%rax, %rax
	je	.L229
	pextrq	$1, %xmm1, 8(%r13,%r9)
	jmp	.L229
	.cfi_endproc
.LFE18791:
	.size	_ZN3hwy6N_SSE46detail22MaybePartitionTwoValueINS0_4SimdIlLm2ELi0EEENS1_12SharedTraitsINS1_10TraitsLaneINS1_14OrderAscendingIlEEEEEElEEbT_T0_PT1_mDTcl4ZerocvSB__EEESF_RSF_SE_.isra.0, .-_ZN3hwy6N_SSE46detail22MaybePartitionTwoValueINS0_4SimdIlLm2ELi0EEENS1_12SharedTraitsINS1_10TraitsLaneINS1_14OrderAscendingIlEEEEEElEEbT_T0_PT1_mDTcl4ZerocvSB__EEESF_RSF_SE_.isra.0
	.section	.text._ZN3hwy6N_SSE46detail8SiftDownINS1_12SharedTraitsINS1_10TraitsLaneINS1_14OrderAscendingIlEEEEEElEEvT_PT0_mm.isra.0,"ax",@progbits
	.p2align 4
	.type	_ZN3hwy6N_SSE46detail8SiftDownINS1_12SharedTraitsINS1_10TraitsLaneINS1_14OrderAscendingIlEEEEEElEEvT_PT0_mm.isra.0, @function
_ZN3hwy6N_SSE46detail8SiftDownINS1_12SharedTraitsINS1_10TraitsLaneINS1_14OrderAscendingIlEEEEEElEEvT_PT0_mm.isra.0:
.LFB18792:
	.cfi_startproc
	cmpq	%rdx, %rsi
	jbe	.L272
	leaq	(%rdx,%rdx), %rcx
	leaq	1(%rdx), %r8
	leaq	1(%rcx), %rax
	addq	$2, %rcx
	cmpq	%rax, %rsi
	jbe	.L272
	movq	(%rdi,%rdx,8), %r11
	movq	%r11, %xmm4
	movddup	%xmm4, %xmm0
	jmp	.L275
	.p2align 4,,10
	.p2align 3
.L276:
	cmpq	%rcx, %rsi
	jbe	.L272
	movq	%rdx, %rax
.L281:
	salq	$4, %r8
	movddup	(%rdi,%r8), %xmm1
	pcmpgtq	%xmm3, %xmm1
	movmskpd	%xmm1, %r8d
	andl	$1, %r8d
	jne	.L278
.L277:
	cmpq	%rdx, %rax
	je	.L272
	leaq	(%rdi,%rax,8), %rdx
	movq	(%rdx), %rcx
	movq	%rcx, (%r10)
	movq	%r11, (%rdx)
	cmpq	%rax, %rsi
	jbe	.L285
	movq	%rax, %rdx
.L279:
	leaq	(%rdx,%rdx), %rcx
	leaq	1(%rdx), %r8
	leaq	1(%rcx), %rax
	addq	$2, %rcx
	cmpq	%rsi, %rax
	jnb	.L272
.L275:
	movddup	(%rdi,%rax,8), %xmm1
	movdqa	%xmm1, %xmm2
	leaq	(%rdi,%rdx,8), %r10
	movdqa	%xmm0, %xmm3
	pcmpgtq	%xmm0, %xmm2
	movmskpd	%xmm2, %r9d
	andl	$1, %r9d
	je	.L276
	cmpq	%rcx, %rsi
	jbe	.L277
	movdqa	%xmm1, %xmm3
	jmp	.L281
	.p2align 4,,10
	.p2align 3
.L278:
	cmpq	%rdx, %rcx
	je	.L286
	leaq	(%rdi,%rcx,8), %rax
	movq	(%rax), %rdx
	movq	%rdx, (%r10)
	movq	%rcx, %rdx
	movq	%r11, (%rax)
	jmp	.L279
	.p2align 4,,10
	.p2align 3
.L272:
	ret
	.p2align 4,,10
	.p2align 3
.L285:
	ret
.L286:
	ret
	.cfi_endproc
.LFE18792:
	.size	_ZN3hwy6N_SSE46detail8SiftDownINS1_12SharedTraitsINS1_10TraitsLaneINS1_14OrderAscendingIlEEEEEElEEvT_PT0_mm.isra.0, .-_ZN3hwy6N_SSE46detail8SiftDownINS1_12SharedTraitsINS1_10TraitsLaneINS1_14OrderAscendingIlEEEEEElEEvT_PT0_mm.isra.0
	.section	.text._ZN3hwy6N_SSE46detail14SortingNetworkINS1_12SharedTraitsINS1_10TraitsLaneINS1_14OrderAscendingIlEEEEEElEEvT_PT0_m.isra.0,"ax",@progbits
	.p2align 4
	.type	_ZN3hwy6N_SSE46detail14SortingNetworkINS1_12SharedTraitsINS1_10TraitsLaneINS1_14OrderAscendingIlEEEEEElEEvT_PT0_m.isra.0, @function
_ZN3hwy6N_SSE46detail14SortingNetworkINS1_12SharedTraitsINS1_10TraitsLaneINS1_14OrderAscendingIlEEEEEElEEvT_PT0_m.isra.0:
.LFB18793:
	.cfi_startproc
	pushq	%rbp
	.cfi_def_cfa_offset 16
	.cfi_offset 6, -16
	movq	%rsi, %rax
	salq	$3, %rax
	movq	%rsp, %rbp
	.cfi_def_cfa_register 6
	pushq	%r15
	.cfi_offset 15, -24
	leaq	(%rdi,%rax), %r15
	pushq	%r14
	.cfi_offset 14, -32
	leaq	(%r15,%rax), %r14
	pushq	%r13
	.cfi_offset 13, -40
	leaq	(%r14,%rax), %r13
	pushq	%r12
	.cfi_offset 12, -48
	leaq	0(%r13,%rax), %r12
	pushq	%rbx
	.cfi_offset 3, -56
	leaq	(%r12,%rax), %rbx
	leaq	(%rbx,%rax), %r11
	leaq	(%r11,%rax), %r10
	addq	$-128, %rsp
	leaq	(%r10,%rax), %r9
	leaq	(%r9,%rax), %r8
	movq	%rdi, -136(%rbp)
	movq	%rsi, -160(%rbp)
	movdqu	(%r15), %xmm14
	movdqu	(%rdi), %xmm7
	leaq	(%r8,%rax), %rdi
	movdqu	0(%r13), %xmm3
	movdqu	(%r14), %xmm8
	leaq	(%rdi,%rax), %rsi
	movdqa	%xmm14, %xmm0
	movdqa	%xmm14, %xmm12
	movdqu	(%rbx), %xmm13
	movdqu	(%r12), %xmm1
	pcmpgtq	%xmm7, %xmm0
	movdqu	(%r10), %xmm11
	movdqu	(%r11), %xmm6
	leaq	(%rsi,%rax), %rcx
	movdqu	(%r8), %xmm10
	leaq	(%rcx,%rax), %rdx
	movdqu	(%rsi), %xmm2
	movdqu	(%rdx), %xmm4
	movdqu	(%rdi), %xmm5
	movq	%rdx, -120(%rbp)
	addq	%rax, %rdx
	pblendvb	%xmm0, %xmm7, %xmm12
	addq	%rdx, %rax
	movdqu	(%rcx), %xmm15
	movq	%rdx, -128(%rbp)
	pblendvb	%xmm0, %xmm14, %xmm7
	movdqa	%xmm3, %xmm0
	movdqa	%xmm3, %xmm14
	movaps	%xmm12, -80(%rbp)
	pcmpgtq	%xmm8, %xmm0
	movdqu	(%r9), %xmm12
	movdqu	(%rax), %xmm9
	movaps	%xmm4, -64(%rbp)
	movdqu	(%rdx), %xmm4
	pblendvb	%xmm0, %xmm8, %xmm14
	pblendvb	%xmm0, %xmm3, %xmm8
	movdqa	%xmm13, %xmm0
	pcmpgtq	%xmm1, %xmm0
	movdqa	%xmm13, %xmm3
	pblendvb	%xmm0, %xmm1, %xmm3
	pblendvb	%xmm0, %xmm13, %xmm1
	movdqa	%xmm11, %xmm0
	pcmpgtq	%xmm6, %xmm0
	movdqa	%xmm11, %xmm13
	pblendvb	%xmm0, %xmm6, %xmm13
	pblendvb	%xmm0, %xmm11, %xmm6
	movdqu	(%r9), %xmm11
	movdqa	%xmm10, %xmm0
	pcmpgtq	%xmm11, %xmm0
	movdqa	%xmm10, %xmm11
	pblendvb	%xmm0, %xmm12, %xmm11
	movaps	%xmm11, -96(%rbp)
	movdqa	%xmm12, %xmm11
	movdqa	-80(%rbp), %xmm12
	pblendvb	%xmm0, %xmm10, %xmm11
	movdqa	%xmm2, %xmm0
	movdqa	%xmm2, %xmm10
	pcmpgtq	%xmm5, %xmm0
	movaps	%xmm11, -112(%rbp)
	pblendvb	%xmm0, %xmm5, %xmm10
	pblendvb	%xmm0, %xmm2, %xmm5
	movdqa	%xmm10, %xmm11
	movdqa	-64(%rbp), %xmm10
	movdqa	%xmm10, %xmm0
	movdqa	%xmm10, %xmm2
	pcmpgtq	%xmm15, %xmm0
	pblendvb	%xmm0, %xmm15, %xmm2
	pblendvb	%xmm0, %xmm10, %xmm15
	movdqa	%xmm9, %xmm0
	pcmpgtq	%xmm4, %xmm0
	movdqa	%xmm9, %xmm10
	pblendvb	%xmm0, %xmm4, %xmm10
	pblendvb	%xmm0, %xmm9, %xmm4
	movdqa	%xmm14, %xmm0
	pcmpgtq	%xmm12, %xmm0
	movdqa	%xmm14, %xmm9
	pblendvb	%xmm0, %xmm12, %xmm9
	pblendvb	%xmm0, %xmm14, %xmm12
	movdqa	%xmm8, %xmm0
	pcmpgtq	%xmm7, %xmm0
	movdqa	%xmm8, %xmm14
	pblendvb	%xmm0, %xmm7, %xmm14
	pblendvb	%xmm0, %xmm8, %xmm7
	movdqa	%xmm13, %xmm0
	pcmpgtq	%xmm3, %xmm0
	movaps	%xmm7, -176(%rbp)
	movdqa	%xmm13, %xmm7
	movdqa	%xmm6, %xmm8
	pblendvb	%xmm0, %xmm3, %xmm7
	pblendvb	%xmm0, %xmm13, %xmm3
	movdqa	%xmm6, %xmm0
	movdqa	-96(%rbp), %xmm13
	pcmpgtq	%xmm1, %xmm0
	pblendvb	%xmm0, %xmm1, %xmm8
	pblendvb	%xmm0, %xmm6, %xmm1
	movdqa	%xmm11, %xmm0
	pcmpgtq	%xmm13, %xmm0
	movdqa	%xmm11, %xmm6
	movaps	%xmm1, -64(%rbp)
	movdqa	%xmm5, %xmm1
	pblendvb	%xmm0, %xmm13, %xmm6
	pblendvb	%xmm0, %xmm11, %xmm13
	movdqa	%xmm5, %xmm0
	movdqa	-112(%rbp), %xmm11
	pcmpgtq	%xmm11, %xmm0
	pblendvb	%xmm0, %xmm11, %xmm1
	pblendvb	%xmm0, %xmm5, %xmm11
	movdqa	%xmm10, %xmm0
	pcmpgtq	%xmm2, %xmm0
	movdqa	%xmm10, %xmm5
	movaps	%xmm11, -80(%rbp)
	movdqa	-176(%rbp), %xmm11
	movaps	%xmm1, -96(%rbp)
	pblendvb	%xmm0, %xmm2, %xmm5
	pblendvb	%xmm0, %xmm10, %xmm2
	movdqa	%xmm4, %xmm0
	pcmpgtq	%xmm15, %xmm0
	movdqa	%xmm4, %xmm10
	pblendvb	%xmm0, %xmm15, %xmm10
	pblendvb	%xmm0, %xmm4, %xmm15
	movdqa	%xmm7, %xmm0
	pcmpgtq	%xmm9, %xmm0
	movdqa	%xmm7, %xmm4
	pblendvb	%xmm0, %xmm9, %xmm4
	pblendvb	%xmm0, %xmm7, %xmm9
	movdqa	%xmm8, %xmm0
	pcmpgtq	%xmm14, %xmm0
	movdqa	%xmm8, %xmm7
	pblendvb	%xmm0, %xmm14, %xmm7
	pblendvb	%xmm0, %xmm8, %xmm14
	movdqa	%xmm3, %xmm0
	pcmpgtq	%xmm12, %xmm0
	movdqa	%xmm3, %xmm8
	pblendvb	%xmm0, %xmm12, %xmm8
	pblendvb	%xmm0, %xmm3, %xmm12
	movdqa	-64(%rbp), %xmm3
	movdqa	%xmm3, %xmm0
	movdqa	%xmm3, %xmm1
	pcmpgtq	%xmm11, %xmm0
	pblendvb	%xmm0, %xmm11, %xmm1
	pblendvb	%xmm0, -64(%rbp), %xmm11
	movdqa	%xmm5, %xmm0
	pcmpgtq	%xmm6, %xmm0
	movdqa	%xmm1, %xmm3
	movaps	%xmm11, -112(%rbp)
	movdqa	%xmm5, %xmm1
	movdqa	-96(%rbp), %xmm11
	pblendvb	%xmm0, %xmm6, %xmm1
	pblendvb	%xmm0, %xmm5, %xmm6
	movdqa	%xmm10, %xmm0
	pcmpgtq	%xmm11, %xmm0
	movdqa	%xmm10, %xmm5
	pblendvb	%xmm0, %xmm11, %xmm5
	pblendvb	%xmm0, %xmm10, %xmm11
	movdqa	%xmm2, %xmm0
	pcmpgtq	%xmm13, %xmm0
	movdqa	%xmm2, %xmm10
	movaps	%xmm11, -64(%rbp)
	movdqa	%xmm15, %xmm11
	pblendvb	%xmm0, %xmm13, %xmm10
	pblendvb	%xmm0, %xmm2, %xmm13
	movdqa	-80(%rbp), %xmm2
	movdqa	%xmm15, %xmm0
	pcmpgtq	%xmm2, %xmm0
	pblendvb	%xmm0, %xmm2, %xmm11
	movdqa	%xmm11, %xmm2
	movdqa	-80(%rbp), %xmm11
	pblendvb	%xmm0, %xmm15, %xmm11
	movdqa	%xmm1, %xmm0
	movdqa	%xmm1, %xmm15
	pcmpgtq	%xmm4, %xmm0
	pblendvb	%xmm0, %xmm4, %xmm15
	pblendvb	%xmm0, %xmm1, %xmm4
	movdqa	%xmm5, %xmm0
	pcmpgtq	%xmm7, %xmm0
	movaps	%xmm15, -80(%rbp)
	movdqa	%xmm10, %xmm1
	movaps	%xmm15, -256(%rbp)
	movdqa	%xmm5, %xmm15
	pblendvb	%xmm0, %xmm7, %xmm15
	pblendvb	%xmm0, %xmm5, %xmm7
	movdqa	%xmm10, %xmm0
	pcmpgtq	%xmm8, %xmm0
	movdqa	%xmm2, %xmm5
	pblendvb	%xmm0, %xmm8, %xmm1
	pblendvb	%xmm0, %xmm10, %xmm8
	movdqa	%xmm2, %xmm0
	pcmpgtq	%xmm3, %xmm0
	movdqa	%xmm14, %xmm10
	pblendvb	%xmm0, %xmm3, %xmm5
	pblendvb	%xmm0, %xmm2, %xmm3
	movdqa	%xmm6, %xmm0
	pcmpgtq	%xmm9, %xmm0
	movdqa	%xmm6, %xmm2
	pblendvb	%xmm0, %xmm9, %xmm2
	pblendvb	%xmm0, %xmm6, %xmm9
	movdqa	-64(%rbp), %xmm6
	movdqa	%xmm6, %xmm0
	pcmpgtq	%xmm14, %xmm0
	pblendvb	%xmm0, -64(%rbp), %xmm10
	pblendvb	%xmm0, %xmm14, %xmm6
	movdqa	%xmm13, %xmm0
	pcmpgtq	%xmm12, %xmm0
	movdqa	%xmm13, %xmm14
	pblendvb	%xmm0, %xmm12, %xmm14
	pblendvb	%xmm0, %xmm13, %xmm12
	movdqa	%xmm11, %xmm0
	movaps	%xmm14, -64(%rbp)
	movdqa	%xmm11, %xmm14
	movdqa	-112(%rbp), %xmm11
	movdqa	%xmm14, %xmm13
	pcmpgtq	%xmm11, %xmm0
	pblendvb	%xmm0, %xmm11, %xmm13
	pblendvb	%xmm0, %xmm14, %xmm11
	movdqa	%xmm8, %xmm0
	pcmpgtq	%xmm6, %xmm0
	movaps	%xmm11, -176(%rbp)
	movdqa	%xmm8, %xmm14
	movdqa	-64(%rbp), %xmm11
	pblendvb	%xmm0, %xmm6, %xmm14
	pblendvb	%xmm0, %xmm8, %xmm6
	movdqa	%xmm7, %xmm0
	pcmpgtq	%xmm11, %xmm0
	movdqa	%xmm7, %xmm8
	pblendvb	%xmm0, %xmm11, %xmm8
	pblendvb	%xmm0, %xmm7, %xmm11
	movdqa	%xmm9, %xmm0
	pcmpgtq	%xmm5, %xmm0
	movdqa	%xmm9, %xmm7
	pblendvb	%xmm0, %xmm5, %xmm7
	pblendvb	%xmm0, %xmm9, %xmm5
	movdqa	%xmm3, %xmm0
	pcmpgtq	%xmm13, %xmm0
	movdqa	%xmm3, %xmm9
	pblendvb	%xmm0, %xmm13, %xmm9
	pblendvb	%xmm0, %xmm3, %xmm13
	movdqa	%xmm12, %xmm0
	pcmpgtq	%xmm10, %xmm0
	movdqa	%xmm12, %xmm3
	pblendvb	%xmm0, %xmm10, %xmm3
	pblendvb	%xmm0, %xmm12, %xmm10
	movdqa	%xmm4, %xmm0
	pcmpgtq	%xmm2, %xmm0
	movdqa	%xmm4, %xmm12
	pblendvb	%xmm0, %xmm2, %xmm12
	pblendvb	%xmm0, %xmm4, %xmm2
	movdqa	%xmm1, %xmm0
	pcmpgtq	%xmm15, %xmm0
	movdqa	%xmm1, %xmm4
	pblendvb	%xmm0, %xmm15, %xmm4
	pblendvb	%xmm0, %xmm1, %xmm15
	movdqa	%xmm12, %xmm0
	pcmpgtq	%xmm4, %xmm0
	movdqa	%xmm12, %xmm1
	pblendvb	%xmm0, %xmm4, %xmm1
	pblendvb	%xmm0, %xmm12, %xmm4
	movdqa	%xmm3, %xmm0
	pcmpgtq	%xmm9, %xmm0
	movdqa	%xmm3, %xmm12
	movaps	%xmm1, -272(%rbp)
	movaps	%xmm1, -64(%rbp)
	movdqa	%xmm2, %xmm1
	pblendvb	%xmm0, %xmm9, %xmm12
	pblendvb	%xmm0, %xmm3, %xmm9
	movdqa	%xmm2, %xmm0
	pcmpgtq	%xmm15, %xmm0
	movdqa	%xmm4, %xmm3
	pblendvb	%xmm0, %xmm15, %xmm1
	pblendvb	%xmm0, %xmm2, %xmm15
	movdqa	%xmm10, %xmm0
	pcmpgtq	%xmm13, %xmm0
	movdqa	%xmm10, %xmm2
	pblendvb	%xmm0, %xmm13, %xmm2
	pblendvb	%xmm0, %xmm10, %xmm13
	movdqa	%xmm4, %xmm0
	pcmpgtq	%xmm1, %xmm0
	movaps	%xmm13, -192(%rbp)
	movdqa	%xmm8, %xmm10
	pblendvb	%xmm0, %xmm1, %xmm3
	pblendvb	%xmm0, %xmm4, %xmm1
	movdqa	%xmm8, %xmm0
	pcmpgtq	%xmm14, %xmm0
	movdqa	%xmm1, %xmm13
	movdqa	%xmm14, %xmm1
	movaps	%xmm3, -288(%rbp)
	movdqa	%xmm11, %xmm4
	movaps	%xmm3, -96(%rbp)
	movdqa	%xmm15, %xmm3
	pblendvb	%xmm0, %xmm14, %xmm10
	pblendvb	%xmm0, %xmm8, %xmm1
	movdqa	%xmm6, %xmm0
	pcmpgtq	%xmm11, %xmm0
	movdqa	%xmm6, %xmm8
	pblendvb	%xmm0, %xmm6, %xmm4
	pblendvb	%xmm0, %xmm11, %xmm8
	movdqa	%xmm9, %xmm0
	pcmpgtq	%xmm2, %xmm0
	movdqa	%xmm9, %xmm6
	movdqa	%xmm8, %xmm11
	pblendvb	%xmm0, %xmm2, %xmm6
	pblendvb	%xmm0, %xmm9, %xmm2
	movdqa	%xmm15, %xmm0
	pcmpgtq	%xmm7, %xmm0
	movaps	%xmm2, -224(%rbp)
	movdqa	%xmm5, %xmm2
	movdqa	%xmm13, %xmm9
	movaps	%xmm6, -208(%rbp)
	pblendvb	%xmm0, %xmm7, %xmm3
	pblendvb	%xmm0, %xmm15, %xmm7
	movdqa	%xmm5, %xmm0
	pcmpgtq	%xmm12, %xmm0
	pblendvb	%xmm0, %xmm12, %xmm2
	pblendvb	%xmm0, %xmm5, %xmm12
	movdqa	%xmm10, %xmm0
	pcmpgtq	%xmm3, %xmm0
	movdqa	%xmm10, %xmm5
	movdqa	%xmm2, %xmm6
	movdqa	%xmm7, %xmm2
	pblendvb	%xmm0, %xmm3, %xmm5
	pblendvb	%xmm0, %xmm10, %xmm3
	movdqa	%xmm7, %xmm0
	pcmpgtq	%xmm1, %xmm0
	pblendvb	%xmm0, %xmm1, %xmm2
	pblendvb	%xmm0, %xmm7, %xmm1
	movdqa	%xmm8, %xmm0
	pcmpgtq	%xmm6, %xmm0
	movdqa	%xmm12, %xmm7
	movdqa	%xmm2, %xmm14
	pblendvb	%xmm0, %xmm6, %xmm11
	pblendvb	%xmm0, %xmm8, %xmm6
	movdqa	%xmm12, %xmm0
	pcmpgtq	%xmm4, %xmm0
	pblendvb	%xmm0, %xmm4, %xmm7
	pblendvb	%xmm0, %xmm12, %xmm4
	movdqa	%xmm13, %xmm0
	pcmpgtq	%xmm5, %xmm0
	pblendvb	%xmm0, %xmm5, %xmm9
	pblendvb	%xmm0, %xmm13, %xmm5
	movdqa	%xmm2, %xmm0
	pcmpgtq	%xmm3, %xmm0
	movdqa	%xmm5, %xmm10
	movdqa	%xmm5, %xmm15
	movaps	%xmm9, -112(%rbp)
	movdqa	%xmm7, %xmm5
	cmpq	$1, -160(%rbp)
	pblendvb	%xmm0, %xmm3, %xmm14
	pblendvb	%xmm0, %xmm2, %xmm3
	movdqa	%xmm1, %xmm0
	pcmpgtq	%xmm11, %xmm0
	movdqa	%xmm1, %xmm2
	pblendvb	%xmm0, %xmm11, %xmm2
	pblendvb	%xmm0, %xmm1, %xmm11
	movdqa	%xmm7, %xmm0
	pcmpgtq	%xmm6, %xmm0
	movdqa	%xmm6, %xmm1
	movdqa	%xmm2, %xmm13
	pblendvb	%xmm0, %xmm6, %xmm5
	movdqa	-208(%rbp), %xmm6
	pblendvb	%xmm0, %xmm7, %xmm1
	movdqa	%xmm4, %xmm0
	movaps	%xmm1, -240(%rbp)
	movdqa	%xmm4, %xmm1
	pcmpgtq	%xmm6, %xmm0
	movdqa	%xmm6, %xmm7
	pblendvb	%xmm0, %xmm4, %xmm7
	pblendvb	%xmm0, %xmm6, %xmm1
	movdqa	%xmm2, %xmm0
	pcmpgtq	%xmm3, %xmm0
	movdqa	%xmm5, %xmm4
	pblendvb	%xmm0, %xmm3, %xmm13
	pblendvb	%xmm0, %xmm2, %xmm3
	movdqa	%xmm5, %xmm0
	pcmpgtq	%xmm11, %xmm0
	pblendvb	%xmm0, %xmm11, %xmm4
	pblendvb	%xmm0, %xmm5, %xmm11
	jbe	.L291
	movdqa	-256(%rbp), %xmm12
	pshufd	$78, %xmm7, %xmm7
	pshufd	$78, -176(%rbp), %xmm6
	movdqa	%xmm6, %xmm0
	movdqa	%xmm6, %xmm15
	pshufd	$78, %xmm1, %xmm1
	pshufd	$78, %xmm11, %xmm11
	pshufd	$78, -192(%rbp), %xmm2
	pcmpgtq	%xmm12, %xmm0
	pshufd	$78, %xmm4, %xmm4
	pshufd	$78, -224(%rbp), %xmm5
	pshufd	$78, -240(%rbp), %xmm8
	pblendvb	%xmm0, %xmm12, %xmm15
	pblendvb	%xmm0, %xmm6, %xmm12
	movdqa	%xmm2, %xmm0
	movaps	%xmm12, -64(%rbp)
	movdqa	%xmm2, %xmm6
	movdqa	-272(%rbp), %xmm12
	pcmpgtq	%xmm12, %xmm0
	pblendvb	%xmm0, %xmm12, %xmm6
	pblendvb	%xmm0, %xmm2, %xmm12
	movdqa	%xmm5, %xmm0
	movdqa	-288(%rbp), %xmm2
	movaps	%xmm12, -80(%rbp)
	movdqa	%xmm5, %xmm12
	pcmpgtq	%xmm2, %xmm0
	pblendvb	%xmm0, %xmm2, %xmm12
	pblendvb	%xmm0, %xmm5, %xmm2
	movdqa	%xmm7, %xmm0
	pcmpgtq	%xmm9, %xmm0
	movdqa	%xmm7, %xmm5
	movaps	%xmm12, -96(%rbp)
	pblendvb	%xmm0, %xmm9, %xmm5
	pblendvb	%xmm0, %xmm7, %xmm9
	movdqa	%xmm1, %xmm0
	pcmpgtq	%xmm10, %xmm0
	movdqa	%xmm1, %xmm7
	movaps	%xmm5, -112(%rbp)
	pshufd	$78, %xmm9, %xmm5
	pshufd	$78, %xmm2, %xmm9
	pblendvb	%xmm0, %xmm10, %xmm7
	pblendvb	%xmm0, %xmm1, %xmm10
	movdqa	%xmm8, %xmm0
	pcmpgtq	%xmm14, %xmm0
	movdqa	%xmm8, %xmm1
	pshufd	$78, %xmm7, %xmm7
	movaps	%xmm10, -160(%rbp)
	pblendvb	%xmm0, %xmm14, %xmm1
	movdqa	%xmm1, %xmm10
	movdqa	%xmm14, %xmm1
	movdqa	%xmm4, %xmm14
	pblendvb	%xmm0, %xmm8, %xmm1
	movdqa	%xmm11, %xmm0
	movdqa	%xmm11, %xmm8
	pcmpgtq	%xmm13, %xmm0
	pshufd	$78, %xmm10, %xmm10
	pblendvb	%xmm0, %xmm13, %xmm8
	pblendvb	%xmm0, %xmm11, %xmm13
	movdqa	%xmm4, %xmm0
	pshufd	$78, -80(%rbp), %xmm11
	pcmpgtq	%xmm3, %xmm0
	pshufd	$78, %xmm8, %xmm8
	pblendvb	%xmm0, %xmm3, %xmm14
	pblendvb	%xmm0, %xmm4, %xmm3
	pshufd	$78, -64(%rbp), %xmm4
	pshufd	$78, %xmm14, %xmm14
	movdqa	%xmm3, %xmm2
	movdqa	%xmm14, %xmm0
	movdqa	%xmm14, %xmm12
	pcmpgtq	%xmm15, %xmm0
	pblendvb	%xmm0, %xmm15, %xmm12
	pblendvb	%xmm0, %xmm14, %xmm15
	movdqa	%xmm4, %xmm0
	pcmpgtq	%xmm3, %xmm0
	movdqa	%xmm4, %xmm14
	pblendvb	%xmm0, %xmm3, %xmm14
	pblendvb	%xmm0, %xmm4, %xmm2
	movdqa	%xmm8, %xmm0
	movdqa	-96(%rbp), %xmm3
	pcmpgtq	%xmm6, %xmm0
	movdqa	%xmm8, %xmm4
	movaps	%xmm14, -64(%rbp)
	movdqa	%xmm2, %xmm14
	movdqa	%xmm10, %xmm2
	pblendvb	%xmm0, %xmm6, %xmm4
	pblendvb	%xmm0, %xmm8, %xmm6
	movdqa	%xmm11, %xmm0
	pcmpgtq	%xmm13, %xmm0
	movdqa	%xmm11, %xmm8
	pshufd	$78, %xmm6, %xmm6
	pblendvb	%xmm0, %xmm13, %xmm8
	pblendvb	%xmm0, %xmm11, %xmm13
	movdqa	%xmm10, %xmm0
	pcmpgtq	%xmm3, %xmm0
	movaps	%xmm8, -80(%rbp)
	movdqa	%xmm9, %xmm11
	pshufd	$78, %xmm13, %xmm13
	pblendvb	%xmm0, %xmm3, %xmm2
	movdqa	%xmm2, %xmm8
	movdqa	%xmm3, %xmm2
	movdqa	-112(%rbp), %xmm3
	pblendvb	%xmm0, %xmm10, %xmm2
	movdqa	%xmm9, %xmm0
	pshufd	$78, %xmm8, %xmm8
	pcmpgtq	%xmm1, %xmm0
	pshufd	$78, %xmm15, %xmm10
	pblendvb	%xmm0, %xmm1, %xmm11
	pblendvb	%xmm0, %xmm9, %xmm1
	movdqa	%xmm7, %xmm0
	pcmpgtq	%xmm3, %xmm0
	movdqa	%xmm7, %xmm9
	movaps	%xmm11, -96(%rbp)
	pshufd	$78, -96(%rbp), %xmm15
	pblendvb	%xmm0, %xmm3, %xmm9
	pblendvb	%xmm0, %xmm7, %xmm3
	movdqa	%xmm5, %xmm0
	movdqa	%xmm3, %xmm11
	pshufd	$78, %xmm9, %xmm9
	movdqa	%xmm5, %xmm7
	movdqa	-160(%rbp), %xmm3
	pcmpgtq	%xmm3, %xmm0
	pblendvb	%xmm0, %xmm3, %xmm7
	pblendvb	%xmm0, %xmm5, %xmm3
	movdqa	%xmm9, %xmm0
	pcmpgtq	%xmm12, %xmm0
	pshufd	$78, %xmm14, %xmm5
	movdqa	%xmm9, %xmm14
	pshufd	$78, %xmm7, %xmm7
	pblendvb	%xmm0, %xmm12, %xmm14
	pblendvb	%xmm0, %xmm9, %xmm12
	movdqa	%xmm8, %xmm0
	pcmpgtq	%xmm4, %xmm0
	movdqa	%xmm8, %xmm9
	pblendvb	%xmm0, %xmm4, %xmm9
	pblendvb	%xmm0, %xmm8, %xmm4
	movdqa	%xmm10, %xmm0
	pcmpgtq	%xmm11, %xmm0
	movdqa	%xmm10, %xmm8
	movaps	%xmm9, -96(%rbp)
	movdqa	-80(%rbp), %xmm9
	pblendvb	%xmm0, %xmm11, %xmm8
	pblendvb	%xmm0, %xmm10, %xmm11
	movdqa	%xmm6, %xmm0
	pcmpgtq	%xmm2, %xmm0
	movdqa	%xmm6, %xmm10
	movaps	%xmm8, -112(%rbp)
	pshufd	$78, %xmm11, %xmm11
	pblendvb	%xmm0, %xmm2, %xmm10
	pblendvb	%xmm0, %xmm6, %xmm2
	movdqa	-64(%rbp), %xmm6
	movdqa	%xmm7, %xmm0
	movdqa	%xmm10, %xmm8
	movdqa	%xmm7, %xmm10
	pcmpgtq	%xmm6, %xmm0
	pshufd	$78, %xmm8, %xmm8
	pblendvb	%xmm0, %xmm6, %xmm10
	pblendvb	%xmm0, %xmm7, %xmm6
	movdqa	%xmm15, %xmm0
	pcmpgtq	%xmm9, %xmm0
	movdqa	%xmm15, %xmm7
	pshufd	$78, %xmm6, %xmm6
	pblendvb	%xmm0, %xmm9, %xmm7
	pblendvb	%xmm0, %xmm15, %xmm9
	movdqa	%xmm5, %xmm0
	pcmpgtq	%xmm3, %xmm0
	movdqa	%xmm5, %xmm15
	pshufd	$78, %xmm7, %xmm7
	pblendvb	%xmm0, %xmm3, %xmm15
	pblendvb	%xmm0, %xmm5, %xmm3
	movdqa	%xmm13, %xmm0
	pcmpgtq	%xmm1, %xmm0
	movdqa	%xmm13, %xmm5
	movaps	%xmm15, -64(%rbp)
	pshufd	$78, -96(%rbp), %xmm15
	pshufd	$78, %xmm3, %xmm3
	pblendvb	%xmm0, %xmm1, %xmm5
	pblendvb	%xmm0, %xmm13, %xmm1
	movdqa	%xmm15, %xmm0
	pcmpgtq	%xmm14, %xmm0
	pshufd	$78, %xmm12, %xmm13
	movdqa	%xmm15, %xmm12
	pshufd	$78, %xmm5, %xmm5
	pblendvb	%xmm0, %xmm14, %xmm12
	pblendvb	%xmm0, %xmm15, %xmm14
	movdqa	%xmm13, %xmm0
	pcmpgtq	%xmm4, %xmm0
	movaps	%xmm12, -80(%rbp)
	movdqa	%xmm13, %xmm15
	movdqa	-112(%rbp), %xmm12
	pblendvb	%xmm0, %xmm4, %xmm15
	pblendvb	%xmm0, %xmm13, %xmm4
	movdqa	%xmm8, %xmm0
	pcmpgtq	%xmm12, %xmm0
	movdqa	%xmm8, %xmm13
	pblendvb	%xmm0, %xmm12, %xmm13
	pblendvb	%xmm0, %xmm8, %xmm12
	movdqa	%xmm11, %xmm0
	pcmpgtq	%xmm2, %xmm0
	movdqa	%xmm11, %xmm8
	pblendvb	%xmm0, %xmm2, %xmm8
	pblendvb	%xmm0, %xmm11, %xmm2
	movdqa	%xmm7, %xmm0
	pcmpgtq	%xmm10, %xmm0
	movdqa	%xmm7, %xmm11
	pblendvb	%xmm0, %xmm10, %xmm11
	pblendvb	%xmm0, %xmm7, %xmm10
	movdqa	%xmm6, %xmm0
	pcmpgtq	%xmm9, %xmm0
	movdqa	%xmm6, %xmm7
	pblendvb	%xmm0, %xmm9, %xmm7
	pblendvb	%xmm0, %xmm6, %xmm9
	movdqa	%xmm5, %xmm0
	movdqa	-64(%rbp), %xmm6
	movaps	%xmm7, -160(%rbp)
	movdqa	%xmm5, %xmm7
	pcmpgtq	%xmm6, %xmm0
	pblendvb	%xmm0, %xmm6, %xmm7
	pblendvb	%xmm0, %xmm5, %xmm6
	movdqa	%xmm3, %xmm0
	pcmpgtq	%xmm1, %xmm0
	movdqa	%xmm3, %xmm5
	pblendvb	%xmm0, %xmm1, %xmm5
	pblendvb	%xmm0, %xmm3, %xmm1
	movaps	%xmm1, -176(%rbp)
	movdqa	-80(%rbp), %xmm3
	pshufd	$78, %xmm3, %xmm1
	movdqa	%xmm1, %xmm0
	pcmpgtq	%xmm3, %xmm0
	punpckhqdq	%xmm0, %xmm0
	pblendvb	%xmm0, %xmm1, %xmm3
	pshufd	$78, %xmm14, %xmm1
	movdqa	%xmm1, %xmm0
	movaps	%xmm3, -80(%rbp)
	movdqa	-160(%rbp), %xmm3
	pcmpgtq	%xmm14, %xmm0
	punpckhqdq	%xmm0, %xmm0
	pblendvb	%xmm0, %xmm1, %xmm14
	pshufd	$78, %xmm15, %xmm1
	movdqa	%xmm1, %xmm0
	movaps	%xmm14, -64(%rbp)
	movdqa	-176(%rbp), %xmm14
	pcmpgtq	%xmm15, %xmm0
	punpckhqdq	%xmm0, %xmm0
	pblendvb	%xmm0, %xmm1, %xmm15
	pshufd	$78, %xmm4, %xmm1
	movdqa	%xmm1, %xmm0
	movaps	%xmm15, -96(%rbp)
	pcmpgtq	%xmm4, %xmm0
	punpckhqdq	%xmm0, %xmm0
	pblendvb	%xmm0, %xmm1, %xmm4
	pshufd	$78, %xmm13, %xmm1
	movdqa	%xmm1, %xmm0
	movaps	%xmm4, -112(%rbp)
	pcmpgtq	%xmm13, %xmm0
	punpckhqdq	%xmm0, %xmm0
	pblendvb	%xmm0, %xmm1, %xmm13
	pshufd	$78, %xmm12, %xmm1
	movdqa	%xmm1, %xmm0
	movdqa	%xmm13, %xmm15
	pcmpgtq	%xmm12, %xmm0
	punpckhqdq	%xmm0, %xmm0
	pblendvb	%xmm0, %xmm1, %xmm12
	pshufd	$78, %xmm8, %xmm1
	movdqa	%xmm1, %xmm0
	pcmpgtq	%xmm8, %xmm0
	punpckhqdq	%xmm0, %xmm0
	pblendvb	%xmm0, %xmm1, %xmm8
	pshufd	$78, %xmm2, %xmm1
	movdqa	%xmm1, %xmm0
	pcmpgtq	%xmm2, %xmm0
	punpckhqdq	%xmm0, %xmm0
	pblendvb	%xmm0, %xmm1, %xmm2
	pshufd	$78, %xmm11, %xmm1
	movdqa	%xmm1, %xmm0
	pcmpgtq	%xmm11, %xmm0
	punpckhqdq	%xmm0, %xmm0
	pblendvb	%xmm0, %xmm1, %xmm11
	pshufd	$78, %xmm10, %xmm1
	movdqa	%xmm1, %xmm0
	movdqa	%xmm11, %xmm4
	pcmpgtq	%xmm10, %xmm0
	punpckhqdq	%xmm0, %xmm0
	pblendvb	%xmm0, %xmm1, %xmm10
	pshufd	$78, %xmm3, %xmm1
	movdqa	%xmm1, %xmm0
	movdqa	%xmm10, %xmm11
	pcmpgtq	%xmm3, %xmm0
	punpckhqdq	%xmm0, %xmm0
	pblendvb	%xmm0, %xmm1, %xmm3
	movdqa	%xmm3, %xmm10
	pshufd	$78, %xmm9, %xmm3
	movdqa	%xmm3, %xmm0
	pcmpgtq	%xmm9, %xmm0
	punpckhqdq	%xmm0, %xmm0
	pblendvb	%xmm0, %xmm3, %xmm9
	pshufd	$78, %xmm7, %xmm3
	movdqa	%xmm3, %xmm0
	movdqa	%xmm9, %xmm1
	pshufd	$78, %xmm5, %xmm9
	pcmpgtq	%xmm7, %xmm0
	punpckhqdq	%xmm0, %xmm0
	pblendvb	%xmm0, %xmm3, %xmm7
	pshufd	$78, %xmm6, %xmm3
	movdqa	%xmm3, %xmm0
	pcmpgtq	%xmm6, %xmm0
	punpckhqdq	%xmm0, %xmm0
	pblendvb	%xmm0, %xmm3, %xmm6
	movdqa	%xmm9, %xmm0
	pcmpgtq	%xmm5, %xmm0
	punpckhqdq	%xmm0, %xmm0
	pblendvb	%xmm0, %xmm9, %xmm5
	movdqa	%xmm5, %xmm3
	pshufd	$78, %xmm14, %xmm5
	movdqa	%xmm5, %xmm0
	pcmpgtq	%xmm14, %xmm0
	punpckhqdq	%xmm0, %xmm0
	pblendvb	%xmm0, %xmm5, %xmm14
	movdqa	%xmm14, %xmm0
.L289:
	movdqa	-80(%rbp), %xmm5
	movq	-136(%rbp), %rdx
	movups	%xmm5, (%rdx)
	movdqa	-64(%rbp), %xmm5
	movups	%xmm5, (%r15)
	movdqa	-96(%rbp), %xmm5
	movups	%xmm5, (%r14)
	movdqa	-112(%rbp), %xmm5
	movups	%xmm5, 0(%r13)
	movups	%xmm15, (%r12)
	movups	%xmm12, (%rbx)
	movq	-128(%rbp), %rbx
	movups	%xmm8, (%r11)
	movups	%xmm2, (%r10)
	movups	%xmm4, (%r9)
	movups	%xmm11, (%r8)
	movups	%xmm10, (%rdi)
	movups	%xmm1, (%rsi)
	movups	%xmm7, (%rcx)
	movq	-120(%rbp), %rcx
	movups	%xmm6, (%rcx)
	movups	%xmm3, (%rbx)
	movups	%xmm0, (%rax)
	subq	$-128, %rsp
	popq	%rbx
	popq	%r12
	popq	%r13
	popq	%r14
	popq	%r15
	popq	%rbp
	.cfi_remember_state
	.cfi_def_cfa 7, 8
	ret
	.p2align 4,,10
	.p2align 3
.L291:
	.cfi_restore_state
	movdqa	%xmm3, %xmm2
	movdqa	%xmm14, %xmm12
	movdqa	-176(%rbp), %xmm0
	movdqa	-192(%rbp), %xmm3
	movdqa	-224(%rbp), %xmm6
	movdqa	%xmm13, %xmm8
	movdqa	-240(%rbp), %xmm10
	jmp	.L289
	.cfi_endproc
.LFE18793:
	.size	_ZN3hwy6N_SSE46detail14SortingNetworkINS1_12SharedTraitsINS1_10TraitsLaneINS1_14OrderAscendingIlEEEEEElEEvT_PT0_m.isra.0, .-_ZN3hwy6N_SSE46detail14SortingNetworkINS1_12SharedTraitsINS1_10TraitsLaneINS1_14OrderAscendingIlEEEEEElEEvT_PT0_m.isra.0
	.section	.text._ZN3hwy7N_SSSE36detail22MaybePartitionTwoValueINS0_4SimdIlLm2ELi0EEENS1_12SharedTraitsINS1_10TraitsLaneINS1_14OrderAscendingIlEEEEEElEEbT_T0_PT1_mDTcl4ZerocvSB__EEESF_RSF_SE_.isra.0,"ax",@progbits
	.p2align 4
	.type	_ZN3hwy7N_SSSE36detail22MaybePartitionTwoValueINS0_4SimdIlLm2ELi0EEENS1_12SharedTraitsINS1_10TraitsLaneINS1_14OrderAscendingIlEEEEEElEEbT_T0_PT1_mDTcl4ZerocvSB__EEESF_RSF_SE_.isra.0, @function
_ZN3hwy7N_SSSE36detail22MaybePartitionTwoValueINS0_4SimdIlLm2ELi0EEENS1_12SharedTraitsINS1_10TraitsLaneINS1_14OrderAscendingIlEEEEEElEEbT_T0_PT1_mDTcl4ZerocvSB__EEESF_RSF_SE_.isra.0:
.LFB18794:
	.cfi_startproc
	pushq	%rbp
	.cfi_def_cfa_offset 16
	.cfi_offset 6, -16
	movq	%rsp, %rbp
	.cfi_def_cfa_register 6
	pushq	%r15
	pushq	%r14
	.cfi_offset 15, -24
	.cfi_offset 14, -32
	movq	%rdi, %r14
	pushq	%r13
	.cfi_offset 13, -40
	movq	%rcx, %r13
	pushq	%r12
	.cfi_offset 12, -48
	movq	%rsi, %r12
	pushq	%rbx
	subq	$88, %rsp
	.cfi_offset 3, -56
	movq	%rdx, -120(%rbp)
	movaps	%xmm0, -80(%rbp)
	movaps	%xmm1, -64(%rbp)
	movaps	%xmm0, -96(%rbp)
	movaps	%xmm1, -112(%rbp)
	cmpq	$1, %rsi
	jbe	.L315
	movl	$2, %r15d
	xorl	%ebx, %ebx
	jmp	.L300
	.p2align 4,,10
	.p2align 3
.L294:
	movdqa	-80(%rbp), %xmm5
	movmskpd	%xmm1, %edi
	movups	%xmm5, (%r14,%rbx,8)
	call	__popcountdi2@PLT
	cltq
	addq	%rax, %rbx
	leaq	2(%r15), %rax
	cmpq	%r12, %rax
	ja	.L347
	movq	%rax, %r15
.L300:
	movdqu	-16(%r14,%r15,8), %xmm0
	leaq	-2(%r15), %rdx
	leaq	0(,%rbx,8), %rax
	pcmpeqd	-96(%rbp), %xmm0
	pshufd	$177, %xmm0, %xmm1
	pand	%xmm0, %xmm1
	movdqu	-16(%r14,%r15,8), %xmm0
	pcmpeqd	-112(%rbp), %xmm0
	pshufd	$177, %xmm0, %xmm2
	pand	%xmm2, %xmm0
	movdqa	%xmm1, %xmm2
	por	%xmm0, %xmm2
	movmskpd	%xmm2, %ecx
	cmpl	$3, %ecx
	je	.L294
	pcmpeqd	%xmm2, %xmm2
	movq	-120(%rbp), %rsi
	leaq	2(%rbx), %rdi
	pxor	%xmm2, %xmm0
	pandn	%xmm0, %xmm1
	movmskpd	%xmm1, %ecx
	rep bsfl	%ecx, %ecx
	movslq	%ecx, %rcx
	addq	%rdx, %rcx
	movddup	(%r14,%rcx,8), %xmm0
	movaps	%xmm0, (%rsi)
	cmpq	%rdx, %rdi
	ja	.L295
	movq	%rdx, %rcx
	addq	%r14, %rax
	subq	%rbx, %rcx
	leaq	-2(%rcx), %rsi
	movq	%rsi, %rcx
	andq	$-2, %rcx
	addq	%rbx, %rcx
	leaq	16(%r14,%rcx,8), %rcx
	.p2align 4,,10
	.p2align 3
.L296:
	movdqa	-64(%rbp), %xmm4
	addq	$16, %rax
	movups	%xmm4, -16(%rax)
	cmpq	%rcx, %rax
	jne	.L296
	andq	$-2, %rsi
	leaq	(%rsi,%rdi), %rbx
.L295:
	subq	%rbx, %rdx
	movdqa	.LC1(%rip), %xmm2
	movdqa	.LC0(%rip), %xmm1
	leaq	0(,%rbx,8), %rcx
	movq	%rdx, %xmm0
	punpcklqdq	%xmm0, %xmm0
	movdqa	%xmm0, %xmm3
	psubq	%xmm0, %xmm1
	pcmpeqd	%xmm2, %xmm3
	pcmpgtd	%xmm2, %xmm0
	pand	%xmm3, %xmm1
	por	%xmm1, %xmm0
	pshufd	$245, %xmm0, %xmm0
	movq	%xmm0, %rax
	testq	%rax, %rax
	je	.L297
	movdqa	-64(%rbp), %xmm3
	movq	%xmm3, (%r14,%rbx,8)
.L297:
	movhlps	%xmm0, %xmm3
	movq	%xmm3, %rax
	testq	%rax, %rax
	jne	.L348
.L308:
	addq	$88, %rsp
	xorl	%eax, %eax
	popq	%rbx
	popq	%r12
	popq	%r13
	popq	%r14
	popq	%r15
	popq	%rbp
	.cfi_remember_state
	.cfi_def_cfa 7, 8
	ret
	.p2align 4,,10
	.p2align 3
.L348:
	.cfi_restore_state
	movdqa	-64(%rbp), %xmm3
	movhps	%xmm3, 8(%r14,%rcx)
	jmp	.L308
	.p2align 4,,10
	.p2align 3
.L347:
	movq	%r12, %rcx
	leaq	0(,%r15,8), %rsi
	leaq	0(,%rbx,8), %r9
	subq	%r15, %rcx
.L293:
	testq	%rcx, %rcx
	je	.L304
	leaq	0(,%rcx,8), %rdx
	addq	%r14, %rsi
	movq	%r13, %rdi
	movq	%r9, -112(%rbp)
	movq	%rcx, -96(%rbp)
	call	memcpy@PLT
	movq	-96(%rbp), %rcx
	movq	-112(%rbp), %r9
.L304:
	movdqa	.LC1(%rip), %xmm3
	movq	%rcx, %xmm2
	movdqa	-80(%rbp), %xmm5
	movdqa	.LC0(%rip), %xmm1
	punpcklqdq	%xmm2, %xmm2
	movdqa	%xmm3, %xmm4
	pcmpeqd	%xmm2, %xmm4
	movdqa	%xmm1, %xmm0
	psubq	%xmm2, %xmm0
	pcmpgtd	%xmm3, %xmm2
	pand	%xmm4, %xmm0
	por	%xmm2, %xmm0
	movdqa	0(%r13), %xmm2
	pshufd	$245, %xmm0, %xmm0
	pcmpeqd	%xmm2, %xmm5
	pcmpeqd	-64(%rbp), %xmm2
	pshufd	$177, %xmm5, %xmm4
	pand	%xmm0, %xmm4
	pand	%xmm5, %xmm4
	pshufd	$177, %xmm2, %xmm5
	pand	%xmm5, %xmm2
	pcmpeqd	%xmm5, %xmm5
	movdqa	%xmm5, %xmm6
	pxor	%xmm0, %xmm6
	por	%xmm6, %xmm2
	por	%xmm4, %xmm2
	movmskpd	%xmm2, %eax
	cmpl	$3, %eax
	jne	.L349
	movq	%xmm0, %rax
	testq	%rax, %rax
	je	.L309
	movdqa	-80(%rbp), %xmm5
	movq	%xmm5, (%r14,%r9)
.L309:
	movhlps	%xmm0, %xmm6
	movq	%xmm6, %rax
	testq	%rax, %rax
	jne	.L350
.L310:
	movmskpd	%xmm4, %edi
	call	__popcountdi2@PLT
	movdqa	.LC0(%rip), %xmm1
	movdqa	.LC1(%rip), %xmm3
	movslq	%eax, %rdx
	addq	%rbx, %rdx
	leaq	2(%rdx), %rax
	cmpq	%rax, %r12
	jb	.L311
	.p2align 4,,10
	.p2align 3
.L312:
	movdqa	-64(%rbp), %xmm7
	movq	%rax, %rdx
	movups	%xmm7, -16(%r14,%rax,8)
	addq	$2, %rax
	cmpq	%rax, %r12
	jnb	.L312
.L311:
	subq	%rdx, %r12
	movdqa	%xmm3, %xmm2
	leaq	0(,%rdx,8), %rcx
	movq	%r12, %xmm0
	punpcklqdq	%xmm0, %xmm0
	pcmpeqd	%xmm0, %xmm2
	psubq	%xmm0, %xmm1
	pcmpgtd	%xmm3, %xmm0
	pand	%xmm2, %xmm1
	por	%xmm1, %xmm0
	pshufd	$245, %xmm0, %xmm0
	movq	%xmm0, %rax
	testq	%rax, %rax
	je	.L313
	movdqa	-64(%rbp), %xmm3
	movq	%xmm3, (%r14,%rdx,8)
.L313:
	movhlps	%xmm0, %xmm3
	movq	%xmm3, %rax
	testq	%rax, %rax
	je	.L314
	movdqa	-64(%rbp), %xmm3
	movhps	%xmm3, 8(%r14,%rcx)
.L314:
	addq	$88, %rsp
	movl	$1, %eax
	popq	%rbx
	popq	%r12
	popq	%r13
	popq	%r14
	popq	%r15
	popq	%rbp
	.cfi_remember_state
	.cfi_def_cfa 7, 8
	ret
	.p2align 4,,10
	.p2align 3
.L350:
	.cfi_restore_state
	movdqa	-80(%rbp), %xmm6
	movhps	%xmm6, 8(%r14,%r9)
	jmp	.L310
.L315:
	movq	%rsi, %rcx
	xorl	%r9d, %r9d
	xorl	%esi, %esi
	xorl	%ebx, %ebx
	xorl	%r15d, %r15d
	jmp	.L293
.L349:
	pxor	%xmm5, %xmm2
	leaq	2(%rbx), %rsi
	movmskpd	%xmm2, %eax
	rep bsfl	%eax, %eax
	cltq
	addq	%r15, %rax
	movddup	(%r14,%rax,8), %xmm0
	movq	-120(%rbp), %rax
	movaps	%xmm0, (%rax)
	cmpq	%r15, %rsi
	ja	.L305
	leaq	-2(%r15), %rcx
	leaq	(%r14,%rbx,8), %rax
	subq	%rbx, %rcx
	movq	%rcx, %rdx
	andq	$-2, %rdx
	addq	%rbx, %rdx
	leaq	16(%r14,%rdx,8), %rdx
	.p2align 4,,10
	.p2align 3
.L306:
	movdqa	-64(%rbp), %xmm4
	addq	$16, %rax
	movups	%xmm4, -16(%rax)
	cmpq	%rax, %rdx
	jne	.L306
	andq	$-2, %rcx
	leaq	(%rcx,%rsi), %rbx
	leaq	0(,%rbx,8), %r9
.L305:
	subq	%rbx, %r15
	movdqa	%xmm3, %xmm2
	movq	%r15, %xmm0
	punpcklqdq	%xmm0, %xmm0
	pcmpeqd	%xmm0, %xmm2
	psubq	%xmm0, %xmm1
	pcmpgtd	%xmm3, %xmm0
	pand	%xmm2, %xmm1
	por	%xmm1, %xmm0
	pshufd	$245, %xmm0, %xmm0
	movq	%xmm0, %rax
	testq	%rax, %rax
	je	.L307
	movdqa	-64(%rbp), %xmm3
	movq	%xmm3, (%r14,%r9)
.L307:
	movhlps	%xmm0, %xmm3
	movq	%xmm3, %rax
	testq	%rax, %rax
	je	.L308
	movdqa	-64(%rbp), %xmm3
	movhps	%xmm3, 8(%r14,%r9)
	jmp	.L308
	.cfi_endproc
.LFE18794:
	.size	_ZN3hwy7N_SSSE36detail22MaybePartitionTwoValueINS0_4SimdIlLm2ELi0EEENS1_12SharedTraitsINS1_10TraitsLaneINS1_14OrderAscendingIlEEEEEElEEbT_T0_PT1_mDTcl4ZerocvSB__EEESF_RSF_SE_.isra.0, .-_ZN3hwy7N_SSSE36detail22MaybePartitionTwoValueINS0_4SimdIlLm2ELi0EEENS1_12SharedTraitsINS1_10TraitsLaneINS1_14OrderAscendingIlEEEEEElEEbT_T0_PT1_mDTcl4ZerocvSB__EEESF_RSF_SE_.isra.0
	.section	.text._ZN3hwy7N_SSSE36detail8SiftDownINS1_12SharedTraitsINS1_10TraitsLaneINS1_14OrderAscendingIlEEEEEElEEvT_PT0_mm.isra.0,"ax",@progbits
	.p2align 4
	.type	_ZN3hwy7N_SSSE36detail8SiftDownINS1_12SharedTraitsINS1_10TraitsLaneINS1_14OrderAscendingIlEEEEEElEEvT_PT0_mm.isra.0, @function
_ZN3hwy7N_SSSE36detail8SiftDownINS1_12SharedTraitsINS1_10TraitsLaneINS1_14OrderAscendingIlEEEEEElEEvT_PT0_mm.isra.0:
.LFB18795:
	.cfi_startproc
	cmpq	%rdx, %rsi
	jbe	.L351
	leaq	(%rdx,%rdx), %rcx
	leaq	1(%rdx), %r8
	leaq	1(%rcx), %rax
	addq	$2, %rcx
	cmpq	%rax, %rsi
	jbe	.L351
	movq	(%rdi,%rdx,8), %r11
	movq	%r11, %xmm7
	movddup	%xmm7, %xmm3
	movdqa	%xmm3, %xmm6
	jmp	.L354
	.p2align 4,,10
	.p2align 3
.L360:
	movq	%rdx, %rax
.L355:
	cmpq	%rcx, %rsi
	jbe	.L356
	salq	$4, %r8
	movddup	(%rdi,%r8), %xmm0
	movdqa	%xmm0, %xmm2
	psubq	%xmm0, %xmm1
	pcmpeqd	%xmm4, %xmm2
	pcmpgtd	%xmm4, %xmm0
	pand	%xmm2, %xmm1
	por	%xmm0, %xmm1
	pshufd	$245, %xmm1, %xmm1
	movmskpd	%xmm1, %r8d
	andl	$1, %r8d
	jne	.L357
.L356:
	cmpq	%rdx, %rax
	je	.L351
	leaq	(%rdi,%rax,8), %rdx
	movq	(%rdx), %rcx
	movq	%rcx, (%r10)
	movq	%r11, (%rdx)
	cmpq	%rax, %rsi
	jbe	.L363
	movq	%rax, %rdx
.L358:
	leaq	(%rdx,%rdx), %rcx
	leaq	1(%rdx), %r8
	leaq	1(%rcx), %rax
	addq	$2, %rcx
	cmpq	%rsi, %rax
	jnb	.L351
.L354:
	movddup	(%rdi,%rax,8), %xmm2
	movdqa	%xmm2, %xmm5
	movdqa	%xmm3, %xmm0
	leaq	(%rdi,%rdx,8), %r10
	pcmpeqd	%xmm3, %xmm5
	psubq	%xmm2, %xmm0
	movdqa	%xmm6, %xmm4
	movdqa	%xmm3, %xmm1
	pand	%xmm5, %xmm0
	movdqa	%xmm2, %xmm5
	pcmpgtd	%xmm3, %xmm5
	por	%xmm5, %xmm0
	pshufd	$245, %xmm0, %xmm0
	movmskpd	%xmm0, %r9d
	andl	$1, %r9d
	je	.L360
	movdqa	%xmm2, %xmm1
	movdqa	%xmm2, %xmm4
	jmp	.L355
	.p2align 4,,10
	.p2align 3
.L357:
	cmpq	%rcx, %rdx
	je	.L351
	leaq	(%rdi,%rcx,8), %rax
	movq	(%rax), %rdx
	movq	%rdx, (%r10)
	movq	%rcx, %rdx
	movq	%r11, (%rax)
	jmp	.L358
	.p2align 4,,10
	.p2align 3
.L351:
	ret
	.p2align 4,,10
	.p2align 3
.L363:
	ret
	.cfi_endproc
.LFE18795:
	.size	_ZN3hwy7N_SSSE36detail8SiftDownINS1_12SharedTraitsINS1_10TraitsLaneINS1_14OrderAscendingIlEEEEEElEEvT_PT0_mm.isra.0, .-_ZN3hwy7N_SSSE36detail8SiftDownINS1_12SharedTraitsINS1_10TraitsLaneINS1_14OrderAscendingIlEEEEEElEEvT_PT0_mm.isra.0
	.section	.text._ZN3hwy7N_SSSE36detail14SortingNetworkINS1_12SharedTraitsINS1_10TraitsLaneINS1_14OrderAscendingIlEEEEEElEEvT_PT0_m.isra.0,"ax",@progbits
	.p2align 4
	.type	_ZN3hwy7N_SSSE36detail14SortingNetworkINS1_12SharedTraitsINS1_10TraitsLaneINS1_14OrderAscendingIlEEEEEElEEvT_PT0_m.isra.0, @function
_ZN3hwy7N_SSSE36detail14SortingNetworkINS1_12SharedTraitsINS1_10TraitsLaneINS1_14OrderAscendingIlEEEEEElEEvT_PT0_m.isra.0:
.LFB18796:
	.cfi_startproc
	pushq	%rbp
	.cfi_def_cfa_offset 16
	.cfi_offset 6, -16
	movq	%rsi, %rax
	salq	$3, %rax
	movq	%rsp, %rbp
	.cfi_def_cfa_register 6
	pushq	%r15
	.cfi_offset 15, -24
	leaq	(%rdi,%rax), %r15
	pushq	%r14
	.cfi_offset 14, -32
	leaq	(%r15,%rax), %r14
	pushq	%r13
	.cfi_offset 13, -40
	leaq	(%r14,%rax), %r13
	pushq	%r12
	.cfi_offset 12, -48
	leaq	0(%r13,%rax), %r12
	pushq	%rbx
	.cfi_offset 3, -56
	leaq	(%r12,%rax), %rbx
	leaq	(%rbx,%rax), %r11
	leaq	(%r11,%rax), %r10
	subq	$224, %rsp
	leaq	(%r10,%rax), %r9
	leaq	(%r9,%rax), %r8
	movq	%rdi, -232(%rbp)
	movq	%rsi, -192(%rbp)
	movdqu	(%rdi), %xmm9
	leaq	(%r8,%rax), %rdi
	movdqu	(%r15), %xmm6
	leaq	(%rdi,%rax), %rsi
	movdqu	0(%r13), %xmm5
	movdqu	(%r14), %xmm13
	leaq	(%rsi,%rax), %rcx
	movdqa	%xmm9, %xmm14
	movdqu	(%rbx), %xmm3
	movdqu	(%r12), %xmm12
	leaq	(%rcx,%rax), %rdx
	psubq	%xmm6, %xmm14
	movdqu	(%r10), %xmm2
	movdqu	(%r11), %xmm11
	movdqu	(%rdx), %xmm0
	movdqu	(%rsi), %xmm4
	movq	%rdx, -216(%rbp)
	addq	%rax, %rdx
	movdqu	(%rdx), %xmm15
	movdqu	(%r8), %xmm8
	movq	%rdx, -224(%rbp)
	addq	%rdx, %rax
	movaps	%xmm0, -96(%rbp)
	movdqa	%xmm6, %xmm0
	movdqu	(%rdi), %xmm7
	movdqu	(%rcx), %xmm1
	pcmpeqd	%xmm9, %xmm0
	movaps	%xmm15, -112(%rbp)
	movdqu	(%r9), %xmm10
	pand	%xmm14, %xmm0
	movdqa	%xmm6, %xmm14
	pcmpgtd	%xmm9, %xmm14
	por	%xmm14, %xmm0
	pshufd	$245, %xmm0, %xmm0
	movdqa	%xmm0, %xmm14
	pandn	%xmm6, %xmm14
	pand	%xmm0, %xmm6
	movdqa	%xmm14, %xmm15
	movdqa	%xmm9, %xmm14
	pand	%xmm0, %xmm14
	por	%xmm15, %xmm14
	movdqa	%xmm0, %xmm15
	movdqa	%xmm5, %xmm0
	pcmpeqd	%xmm13, %xmm0
	pandn	%xmm9, %xmm15
	movdqa	%xmm13, %xmm9
	psubq	%xmm5, %xmm9
	por	%xmm15, %xmm6
	pand	%xmm9, %xmm0
	movdqa	%xmm5, %xmm9
	pcmpgtd	%xmm13, %xmm9
	por	%xmm9, %xmm0
	pshufd	$245, %xmm0, %xmm0
	movdqa	%xmm0, %xmm9
	pandn	%xmm5, %xmm9
	pand	%xmm0, %xmm5
	movdqa	%xmm9, %xmm15
	movdqa	%xmm13, %xmm9
	pand	%xmm0, %xmm9
	por	%xmm15, %xmm9
	movdqa	%xmm0, %xmm15
	movdqa	%xmm3, %xmm0
	pcmpeqd	%xmm12, %xmm0
	pandn	%xmm13, %xmm15
	movdqa	%xmm12, %xmm13
	psubq	%xmm3, %xmm13
	por	%xmm15, %xmm5
	pand	%xmm13, %xmm0
	movdqa	%xmm3, %xmm13
	pcmpgtd	%xmm12, %xmm13
	por	%xmm13, %xmm0
	pshufd	$245, %xmm0, %xmm0
	movdqa	%xmm0, %xmm13
	pandn	%xmm3, %xmm13
	pand	%xmm0, %xmm3
	movdqa	%xmm13, %xmm15
	movdqa	%xmm12, %xmm13
	pand	%xmm0, %xmm13
	por	%xmm15, %xmm13
	movdqa	%xmm0, %xmm15
	movdqa	%xmm2, %xmm0
	pandn	%xmm12, %xmm15
	pcmpeqd	%xmm11, %xmm0
	por	%xmm15, %xmm3
	movaps	%xmm3, -64(%rbp)
	movdqa	%xmm11, %xmm3
	psubq	%xmm2, %xmm3
	pand	%xmm3, %xmm0
	movdqa	%xmm2, %xmm3
	pcmpgtd	%xmm11, %xmm3
	por	%xmm3, %xmm0
	movdqa	%xmm11, %xmm3
	pshufd	$245, %xmm0, %xmm0
	movdqa	%xmm0, %xmm12
	pand	%xmm0, %xmm3
	pandn	%xmm2, %xmm12
	pand	%xmm0, %xmm2
	por	%xmm12, %xmm3
	movdqa	%xmm0, %xmm12
	movdqa	%xmm8, %xmm0
	pcmpeqd	%xmm10, %xmm0
	pandn	%xmm11, %xmm12
	movdqa	%xmm10, %xmm11
	psubq	%xmm8, %xmm11
	por	%xmm12, %xmm2
	movdqa	%xmm10, %xmm12
	pand	%xmm11, %xmm0
	movdqa	%xmm8, %xmm11
	pcmpgtd	%xmm10, %xmm11
	por	%xmm11, %xmm0
	pshufd	$245, %xmm0, %xmm0
	movdqa	%xmm0, %xmm11
	pand	%xmm0, %xmm12
	pandn	%xmm8, %xmm11
	pand	%xmm0, %xmm8
	por	%xmm11, %xmm12
	movdqa	%xmm0, %xmm11
	movdqa	%xmm4, %xmm0
	pandn	%xmm10, %xmm11
	pcmpeqd	%xmm7, %xmm0
	por	%xmm11, %xmm8
	movaps	%xmm8, -80(%rbp)
	movdqa	%xmm7, %xmm8
	movdqa	-96(%rbp), %xmm10
	movdqa	-112(%rbp), %xmm15
	psubq	%xmm4, %xmm8
	pand	%xmm8, %xmm0
	movdqa	%xmm4, %xmm8
	pcmpgtd	%xmm7, %xmm8
	por	%xmm8, %xmm0
	movdqa	%xmm7, %xmm8
	pshufd	$245, %xmm0, %xmm0
	movdqa	%xmm0, %xmm11
	pand	%xmm0, %xmm8
	pandn	%xmm4, %xmm11
	pand	%xmm0, %xmm4
	por	%xmm11, %xmm8
	movdqa	%xmm0, %xmm11
	movdqa	%xmm10, %xmm0
	pcmpeqd	%xmm1, %xmm0
	pandn	%xmm7, %xmm11
	movdqa	%xmm1, %xmm7
	psubq	%xmm10, %xmm7
	por	%xmm11, %xmm4
	movdqa	%xmm1, %xmm11
	pand	%xmm7, %xmm0
	movdqa	%xmm10, %xmm7
	pcmpgtd	%xmm1, %xmm7
	por	%xmm7, %xmm0
	pshufd	$245, %xmm0, %xmm0
	movdqa	%xmm0, %xmm7
	pand	%xmm0, %xmm11
	pandn	%xmm10, %xmm7
	por	%xmm7, %xmm11
	movdqa	%xmm0, %xmm7
	pand	%xmm10, %xmm0
	movdqu	(%rax), %xmm10
	pandn	%xmm1, %xmm7
	movdqu	(%rax), %xmm1
	por	%xmm7, %xmm0
	movdqa	%xmm15, %xmm7
	psubq	%xmm1, %xmm7
	movdqu	(%rax), %xmm1
	movaps	%xmm0, -96(%rbp)
	movdqa	%xmm15, %xmm0
	pcmpeqd	%xmm15, %xmm1
	pand	%xmm7, %xmm1
	movdqu	(%rax), %xmm7
	pcmpgtd	%xmm15, %xmm7
	por	%xmm7, %xmm1
	pshufd	$245, %xmm1, %xmm1
	movdqa	%xmm1, %xmm7
	pand	%xmm1, %xmm0
	pandn	%xmm10, %xmm7
	por	%xmm7, %xmm0
	movdqa	%xmm1, %xmm7
	pand	%xmm10, %xmm1
	pandn	%xmm15, %xmm7
	movdqa	%xmm14, %xmm10
	movdqa	%xmm14, %xmm15
	por	%xmm7, %xmm1
	movdqa	%xmm9, %xmm7
	psubq	%xmm9, %xmm10
	pcmpeqd	%xmm14, %xmm7
	pand	%xmm10, %xmm7
	movdqa	%xmm9, %xmm10
	pcmpgtd	%xmm14, %xmm10
	por	%xmm10, %xmm7
	pshufd	$245, %xmm7, %xmm7
	movdqa	%xmm7, %xmm10
	pand	%xmm7, %xmm15
	pandn	%xmm9, %xmm10
	pand	%xmm7, %xmm9
	por	%xmm15, %xmm10
	movdqa	%xmm7, %xmm15
	movdqa	%xmm5, %xmm7
	pcmpeqd	%xmm6, %xmm7
	pandn	%xmm14, %xmm15
	movdqa	%xmm6, %xmm14
	por	%xmm9, %xmm15
	movdqa	%xmm6, %xmm9
	psubq	%xmm5, %xmm9
	pand	%xmm9, %xmm7
	movdqa	%xmm5, %xmm9
	pcmpgtd	%xmm6, %xmm9
	por	%xmm9, %xmm7
	pshufd	$245, %xmm7, %xmm7
	movdqa	%xmm7, %xmm9
	pand	%xmm7, %xmm14
	pandn	%xmm5, %xmm9
	pand	%xmm7, %xmm5
	por	%xmm14, %xmm9
	movdqa	%xmm7, %xmm14
	pandn	%xmm6, %xmm14
	movdqa	%xmm3, %xmm6
	por	%xmm14, %xmm5
	pcmpeqd	%xmm13, %xmm6
	movdqa	-64(%rbp), %xmm14
	movaps	%xmm5, -112(%rbp)
	movdqa	%xmm13, %xmm5
	psubq	%xmm3, %xmm5
	pand	%xmm5, %xmm6
	movdqa	%xmm3, %xmm5
	pcmpgtd	%xmm13, %xmm5
	por	%xmm5, %xmm6
	movdqa	%xmm13, %xmm5
	pshufd	$245, %xmm6, %xmm6
	movdqa	%xmm6, %xmm7
	pand	%xmm6, %xmm5
	pandn	%xmm3, %xmm7
	pand	%xmm6, %xmm3
	por	%xmm7, %xmm5
	movdqa	%xmm6, %xmm7
	movdqa	%xmm14, %xmm6
	pandn	%xmm13, %xmm7
	pcmpeqd	%xmm2, %xmm6
	por	%xmm7, %xmm3
	movdqa	%xmm14, %xmm7
	psubq	%xmm2, %xmm7
	pand	%xmm7, %xmm6
	movdqa	%xmm2, %xmm7
	pcmpgtd	%xmm14, %xmm7
	por	%xmm7, %xmm6
	movdqa	%xmm14, %xmm7
	pshufd	$245, %xmm6, %xmm6
	movdqa	%xmm6, %xmm13
	pand	%xmm6, %xmm7
	pandn	%xmm2, %xmm13
	pand	%xmm6, %xmm2
	por	%xmm13, %xmm7
	movdqa	%xmm6, %xmm13
	movdqa	%xmm8, %xmm6
	pandn	%xmm14, %xmm13
	pcmpeqd	%xmm12, %xmm6
	movdqa	%xmm12, %xmm14
	por	%xmm13, %xmm2
	movdqa	%xmm12, %xmm13
	psubq	%xmm8, %xmm13
	pand	%xmm13, %xmm6
	movdqa	%xmm8, %xmm13
	pcmpgtd	%xmm12, %xmm13
	por	%xmm13, %xmm6
	pshufd	$245, %xmm6, %xmm6
	movdqa	%xmm6, %xmm13
	pand	%xmm6, %xmm14
	pandn	%xmm8, %xmm13
	pand	%xmm6, %xmm8
	por	%xmm14, %xmm13
	movdqa	%xmm6, %xmm14
	movdqa	%xmm8, %xmm6
	pandn	%xmm12, %xmm14
	por	%xmm14, %xmm6
	movdqa	-80(%rbp), %xmm14
	movaps	%xmm6, -128(%rbp)
	movdqa	%xmm14, %xmm6
	movdqa	%xmm14, %xmm8
	movdqa	%xmm14, %xmm12
	pcmpeqd	%xmm4, %xmm6
	psubq	%xmm4, %xmm8
	pand	%xmm8, %xmm6
	movdqa	%xmm4, %xmm8
	pcmpgtd	%xmm14, %xmm8
	por	%xmm8, %xmm6
	pshufd	$245, %xmm6, %xmm6
	movdqa	%xmm6, %xmm8
	pand	%xmm6, %xmm12
	pandn	%xmm4, %xmm8
	pand	%xmm6, %xmm4
	por	%xmm12, %xmm8
	movdqa	%xmm6, %xmm12
	movdqa	%xmm0, %xmm6
	pandn	%xmm14, %xmm12
	pcmpeqd	%xmm11, %xmm6
	movdqa	-96(%rbp), %xmm14
	por	%xmm12, %xmm4
	movaps	%xmm4, -80(%rbp)
	movdqa	%xmm11, %xmm4
	psubq	%xmm0, %xmm4
	pand	%xmm4, %xmm6
	movdqa	%xmm0, %xmm4
	pcmpgtd	%xmm11, %xmm4
	por	%xmm4, %xmm6
	movdqa	%xmm11, %xmm4
	pshufd	$245, %xmm6, %xmm6
	movdqa	%xmm6, %xmm12
	pand	%xmm6, %xmm4
	pandn	%xmm0, %xmm12
	pand	%xmm6, %xmm0
	por	%xmm12, %xmm4
	movdqa	%xmm6, %xmm12
	movdqa	%xmm14, %xmm6
	pandn	%xmm11, %xmm12
	movdqa	%xmm14, %xmm11
	psubq	%xmm1, %xmm6
	pcmpeqd	%xmm1, %xmm11
	por	%xmm12, %xmm0
	pand	%xmm6, %xmm11
	movdqa	%xmm1, %xmm6
	pcmpgtd	%xmm14, %xmm6
	por	%xmm6, %xmm11
	movdqa	%xmm14, %xmm6
	pshufd	$245, %xmm11, %xmm11
	movdqa	%xmm11, %xmm12
	pand	%xmm11, %xmm6
	pandn	%xmm1, %xmm12
	pand	%xmm11, %xmm1
	por	%xmm12, %xmm6
	movdqa	%xmm11, %xmm12
	movdqa	%xmm5, %xmm11
	pandn	%xmm14, %xmm12
	pcmpeqd	%xmm10, %xmm11
	movdqa	%xmm10, %xmm14
	por	%xmm12, %xmm1
	movdqa	%xmm10, %xmm12
	psubq	%xmm5, %xmm12
	pand	%xmm12, %xmm11
	movdqa	%xmm5, %xmm12
	pcmpgtd	%xmm10, %xmm12
	por	%xmm12, %xmm11
	pshufd	$245, %xmm11, %xmm11
	movdqa	%xmm11, %xmm12
	pand	%xmm11, %xmm14
	pandn	%xmm5, %xmm12
	pand	%xmm11, %xmm5
	por	%xmm14, %xmm12
	movdqa	%xmm11, %xmm14
	movdqa	%xmm9, %xmm11
	pandn	%xmm10, %xmm14
	movdqa	%xmm9, %xmm10
	por	%xmm5, %xmm14
	movdqa	%xmm7, %xmm5
	psubq	%xmm7, %xmm10
	pcmpeqd	%xmm9, %xmm5
	pand	%xmm10, %xmm5
	movdqa	%xmm7, %xmm10
	pcmpgtd	%xmm9, %xmm10
	por	%xmm10, %xmm5
	pshufd	$245, %xmm5, %xmm5
	movdqa	%xmm5, %xmm10
	pand	%xmm5, %xmm11
	pandn	%xmm7, %xmm10
	pand	%xmm5, %xmm7
	por	%xmm11, %xmm10
	movdqa	%xmm5, %xmm11
	movdqa	%xmm3, %xmm5
	pandn	%xmm9, %xmm11
	pcmpeqd	%xmm15, %xmm5
	movdqa	%xmm15, %xmm9
	por	%xmm11, %xmm7
	movaps	%xmm7, -96(%rbp)
	movdqa	%xmm15, %xmm7
	psubq	%xmm3, %xmm7
	pand	%xmm7, %xmm5
	movdqa	%xmm3, %xmm7
	pcmpgtd	%xmm15, %xmm7
	por	%xmm7, %xmm5
	pshufd	$245, %xmm5, %xmm5
	movdqa	%xmm5, %xmm7
	pand	%xmm5, %xmm9
	pandn	%xmm3, %xmm7
	pand	%xmm5, %xmm3
	por	%xmm9, %xmm7
	movdqa	%xmm5, %xmm9
	pandn	%xmm15, %xmm9
	movdqa	-112(%rbp), %xmm15
	por	%xmm9, %xmm3
	movaps	%xmm3, -144(%rbp)
	movdqa	%xmm15, %xmm3
	movdqa	%xmm15, %xmm5
	movdqa	%xmm15, %xmm9
	pcmpeqd	%xmm2, %xmm3
	psubq	%xmm2, %xmm5
	pand	%xmm5, %xmm3
	movdqa	%xmm2, %xmm5
	pcmpgtd	%xmm15, %xmm5
	por	%xmm5, %xmm3
	pshufd	$245, %xmm3, %xmm3
	movdqa	%xmm3, %xmm5
	pand	%xmm3, %xmm9
	pandn	%xmm2, %xmm5
	pand	%xmm3, %xmm2
	por	%xmm9, %xmm5
	movdqa	%xmm3, %xmm9
	movdqa	%xmm13, %xmm3
	pandn	%xmm15, %xmm9
	psubq	%xmm4, %xmm3
	movdqa	-128(%rbp), %xmm15
	por	%xmm9, %xmm2
	movaps	%xmm2, -64(%rbp)
	movdqa	%xmm4, %xmm2
	pcmpeqd	%xmm13, %xmm2
	pand	%xmm3, %xmm2
	movdqa	%xmm4, %xmm3
	pcmpgtd	%xmm13, %xmm3
	por	%xmm3, %xmm2
	movdqa	%xmm13, %xmm3
	pshufd	$245, %xmm2, %xmm2
	movdqa	%xmm2, %xmm9
	pand	%xmm2, %xmm3
	pandn	%xmm4, %xmm9
	pand	%xmm2, %xmm4
	por	%xmm9, %xmm3
	movdqa	%xmm2, %xmm9
	movdqa	%xmm6, %xmm2
	pandn	%xmm13, %xmm9
	pcmpeqd	%xmm8, %xmm2
	por	%xmm9, %xmm4
	movdqa	%xmm8, %xmm9
	psubq	%xmm6, %xmm9
	pand	%xmm9, %xmm2
	movdqa	%xmm6, %xmm9
	pcmpgtd	%xmm8, %xmm9
	por	%xmm9, %xmm2
	movdqa	%xmm8, %xmm9
	pshufd	$245, %xmm2, %xmm2
	movdqa	%xmm2, %xmm11
	pand	%xmm2, %xmm9
	pandn	%xmm6, %xmm11
	pand	%xmm2, %xmm6
	por	%xmm11, %xmm9
	movdqa	%xmm2, %xmm11
	movdqa	%xmm15, %xmm2
	pandn	%xmm8, %xmm11
	movdqa	%xmm15, %xmm8
	psubq	%xmm0, %xmm2
	pcmpeqd	%xmm0, %xmm8
	por	%xmm11, %xmm6
	pand	%xmm2, %xmm8
	movdqa	%xmm0, %xmm2
	pcmpgtd	%xmm15, %xmm2
	por	%xmm2, %xmm8
	movdqa	%xmm15, %xmm2
	pshufd	$245, %xmm8, %xmm8
	movdqa	%xmm8, %xmm11
	pand	%xmm8, %xmm2
	pandn	%xmm0, %xmm11
	pand	%xmm8, %xmm0
	por	%xmm11, %xmm2
	movdqa	%xmm8, %xmm11
	pandn	%xmm15, %xmm11
	movdqa	-80(%rbp), %xmm15
	por	%xmm11, %xmm0
	movdqa	%xmm15, %xmm11
	movdqa	%xmm15, %xmm8
	pcmpeqd	%xmm1, %xmm11
	psubq	%xmm1, %xmm8
	pand	%xmm8, %xmm11
	movdqa	%xmm1, %xmm8
	pcmpgtd	%xmm15, %xmm8
	por	%xmm8, %xmm11
	pshufd	$245, %xmm11, %xmm11
	movdqa	%xmm11, %xmm8
	pandn	%xmm1, %xmm8
	pand	%xmm11, %xmm1
	movdqa	%xmm8, %xmm13
	movdqa	%xmm15, %xmm8
	pand	%xmm11, %xmm8
	por	%xmm13, %xmm8
	movdqa	%xmm11, %xmm13
	movdqa	%xmm3, %xmm11
	pcmpeqd	%xmm12, %xmm11
	pandn	%xmm15, %xmm13
	movdqa	%xmm12, %xmm15
	psubq	%xmm3, %xmm15
	por	%xmm13, %xmm1
	pand	%xmm15, %xmm11
	movdqa	%xmm3, %xmm15
	pcmpgtd	%xmm12, %xmm15
	por	%xmm15, %xmm11
	pshufd	$245, %xmm11, %xmm11
	movdqa	%xmm11, %xmm15
	pandn	%xmm3, %xmm15
	pand	%xmm11, %xmm3
	movdqa	%xmm15, %xmm13
	movdqa	%xmm12, %xmm15
	pand	%xmm11, %xmm15
	por	%xmm13, %xmm15
	movaps	%xmm15, -112(%rbp)
	movdqa	%xmm11, %xmm15
	movdqa	%xmm10, %xmm11
	pandn	%xmm12, %xmm15
	psubq	%xmm9, %xmm11
	movdqa	%xmm10, %xmm12
	movdqa	%xmm15, %xmm13
	movdqa	%xmm3, %xmm15
	movdqa	%xmm9, %xmm3
	pcmpeqd	%xmm10, %xmm3
	por	%xmm13, %xmm15
	movdqa	-96(%rbp), %xmm13
	pand	%xmm11, %xmm3
	movdqa	%xmm9, %xmm11
	pcmpgtd	%xmm10, %xmm11
	por	%xmm11, %xmm3
	pshufd	$245, %xmm3, %xmm3
	movdqa	%xmm3, %xmm11
	pand	%xmm3, %xmm12
	pandn	%xmm9, %xmm11
	pand	%xmm3, %xmm9
	por	%xmm11, %xmm12
	movdqa	%xmm3, %xmm11
	movdqa	%xmm7, %xmm3
	pandn	%xmm10, %xmm11
	movdqa	%xmm2, %xmm10
	psubq	%xmm2, %xmm3
	movaps	%xmm12, -80(%rbp)
	pcmpeqd	%xmm7, %xmm10
	por	%xmm11, %xmm9
	pand	%xmm3, %xmm10
	movdqa	%xmm2, %xmm3
	pcmpgtd	%xmm7, %xmm3
	por	%xmm3, %xmm10
	movdqa	%xmm7, %xmm3
	pshufd	$245, %xmm10, %xmm10
	movdqa	%xmm10, %xmm11
	pand	%xmm10, %xmm3
	pandn	%xmm2, %xmm11
	pand	%xmm10, %xmm2
	por	%xmm11, %xmm3
	movdqa	%xmm10, %xmm11
	movdqa	%xmm8, %xmm10
	pcmpeqd	%xmm5, %xmm10
	pandn	%xmm7, %xmm11
	movdqa	%xmm5, %xmm7
	psubq	%xmm8, %xmm7
	por	%xmm11, %xmm2
	pand	%xmm7, %xmm10
	movdqa	%xmm8, %xmm7
	pcmpgtd	%xmm5, %xmm7
	por	%xmm7, %xmm10
	movdqa	%xmm5, %xmm7
	pshufd	$245, %xmm10, %xmm10
	movdqa	%xmm10, %xmm11
	pand	%xmm10, %xmm7
	pandn	%xmm8, %xmm11
	pand	%xmm10, %xmm8
	por	%xmm11, %xmm7
	movdqa	%xmm10, %xmm11
	movdqa	%xmm4, %xmm10
	pcmpeqd	%xmm14, %xmm10
	pandn	%xmm5, %xmm11
	movdqa	%xmm14, %xmm5
	psubq	%xmm4, %xmm5
	por	%xmm11, %xmm8
	pand	%xmm5, %xmm10
	movdqa	%xmm4, %xmm5
	pcmpgtd	%xmm14, %xmm5
	por	%xmm5, %xmm10
	movdqa	%xmm14, %xmm5
	pshufd	$245, %xmm10, %xmm10
	movdqa	%xmm10, %xmm11
	pand	%xmm10, %xmm5
	pandn	%xmm4, %xmm11
	pand	%xmm10, %xmm4
	por	%xmm11, %xmm5
	movdqa	%xmm10, %xmm11
	movdqa	%xmm13, %xmm10
	pandn	%xmm14, %xmm11
	psubq	%xmm6, %xmm10
	movdqa	-144(%rbp), %xmm14
	por	%xmm11, %xmm4
	movdqa	%xmm13, %xmm11
	pcmpeqd	%xmm6, %xmm11
	pand	%xmm10, %xmm11
	movdqa	%xmm6, %xmm10
	pcmpgtd	%xmm13, %xmm10
	por	%xmm10, %xmm11
	movdqa	%xmm13, %xmm10
	pshufd	$245, %xmm11, %xmm11
	movdqa	%xmm11, %xmm12
	pand	%xmm11, %xmm10
	pandn	%xmm6, %xmm12
	pand	%xmm11, %xmm6
	por	%xmm12, %xmm10
	movdqa	%xmm11, %xmm12
	movdqa	%xmm14, %xmm11
	pandn	%xmm13, %xmm12
	pcmpeqd	%xmm0, %xmm11
	por	%xmm12, %xmm6
	movdqa	%xmm14, %xmm12
	psubq	%xmm0, %xmm12
	pand	%xmm12, %xmm11
	movdqa	%xmm0, %xmm12
	pcmpgtd	%xmm14, %xmm12
	por	%xmm12, %xmm11
	movdqa	%xmm14, %xmm12
	pshufd	$245, %xmm11, %xmm11
	movdqa	%xmm11, %xmm13
	pand	%xmm11, %xmm12
	pandn	%xmm0, %xmm13
	pand	%xmm11, %xmm0
	por	%xmm13, %xmm12
	movdqa	%xmm11, %xmm13
	pandn	%xmm14, %xmm13
	movdqa	-64(%rbp), %xmm14
	por	%xmm13, %xmm0
	movdqa	%xmm14, %xmm11
	movdqa	%xmm14, %xmm13
	movaps	%xmm0, -96(%rbp)
	pcmpeqd	%xmm1, %xmm11
	psubq	%xmm1, %xmm13
	pand	%xmm13, %xmm11
	movdqa	%xmm1, %xmm13
	pcmpgtd	%xmm14, %xmm13
	por	%xmm13, %xmm11
	pshufd	$245, %xmm11, %xmm11
	movdqa	%xmm11, %xmm13
	movdqa	%xmm11, %xmm0
	pandn	-64(%rbp), %xmm0
	pandn	%xmm1, %xmm13
	pand	%xmm11, %xmm1
	pand	%xmm11, %xmm14
	por	%xmm0, %xmm1
	movdqa	%xmm10, %xmm11
	por	%xmm14, %xmm13
	movaps	%xmm1, -144(%rbp)
	movdqa	%xmm2, %xmm1
	psubq	%xmm2, %xmm11
	movdqa	%xmm7, %xmm0
	pcmpeqd	%xmm10, %xmm1
	psubq	%xmm4, %xmm0
	pand	%xmm11, %xmm1
	movdqa	%xmm2, %xmm11
	pcmpgtd	%xmm10, %xmm11
	por	%xmm11, %xmm1
	movdqa	%xmm10, %xmm11
	pshufd	$245, %xmm1, %xmm1
	movdqa	%xmm1, %xmm14
	pand	%xmm1, %xmm11
	pandn	%xmm2, %xmm14
	pand	%xmm1, %xmm2
	por	%xmm14, %xmm11
	movdqa	%xmm1, %xmm14
	movdqa	%xmm12, %xmm1
	pandn	%xmm10, %xmm14
	movdqa	%xmm9, %xmm10
	psubq	%xmm9, %xmm1
	pcmpeqd	%xmm12, %xmm10
	por	%xmm14, %xmm2
	pand	%xmm1, %xmm10
	movdqa	%xmm9, %xmm1
	pcmpgtd	%xmm12, %xmm1
	por	%xmm1, %xmm10
	movdqa	%xmm12, %xmm1
	pshufd	$245, %xmm10, %xmm10
	movdqa	%xmm10, %xmm14
	pand	%xmm10, %xmm1
	pandn	%xmm9, %xmm14
	pand	%xmm10, %xmm9
	por	%xmm14, %xmm1
	movdqa	%xmm10, %xmm14
	movdqa	%xmm4, %xmm10
	pcmpeqd	%xmm7, %xmm10
	pandn	%xmm12, %xmm14
	por	%xmm14, %xmm9
	movdqa	%xmm7, %xmm14
	pand	%xmm0, %xmm10
	movdqa	%xmm4, %xmm0
	pcmpgtd	%xmm7, %xmm0
	por	%xmm0, %xmm10
	pshufd	$245, %xmm10, %xmm10
	movdqa	%xmm10, %xmm0
	pand	%xmm10, %xmm14
	pandn	%xmm4, %xmm0
	pand	%xmm10, %xmm4
	por	%xmm0, %xmm14
	movdqa	%xmm10, %xmm0
	pandn	%xmm7, %xmm0
	movdqa	%xmm13, %xmm7
	por	%xmm0, %xmm4
	psubq	%xmm8, %xmm7
	movaps	%xmm4, -64(%rbp)
	movdqa	%xmm8, %xmm4
	pcmpeqd	%xmm13, %xmm4
	pand	%xmm7, %xmm4
	movdqa	%xmm8, %xmm7
	pcmpgtd	%xmm13, %xmm7
	por	%xmm7, %xmm4
	movdqa	%xmm13, %xmm7
	pshufd	$245, %xmm4, %xmm4
	movdqa	%xmm4, %xmm10
	pand	%xmm4, %xmm7
	pandn	%xmm8, %xmm10
	pand	%xmm4, %xmm8
	por	%xmm10, %xmm7
	movdqa	%xmm4, %xmm10
	pandn	%xmm13, %xmm10
	movdqa	-96(%rbp), %xmm13
	por	%xmm10, %xmm8
	movdqa	%xmm6, %xmm10
	movdqa	%xmm13, %xmm4
	psubq	%xmm13, %xmm10
	pcmpeqd	%xmm6, %xmm4
	pand	%xmm10, %xmm4
	movdqa	%xmm13, %xmm10
	pcmpgtd	%xmm6, %xmm10
	por	%xmm10, %xmm4
	movdqa	%xmm6, %xmm10
	pshufd	$245, %xmm4, %xmm4
	movdqa	%xmm4, %xmm0
	pand	%xmm4, %xmm10
	pandn	%xmm13, %xmm0
	por	%xmm0, %xmm10
	movdqa	%xmm4, %xmm0
	pandn	%xmm6, %xmm0
	movdqa	%xmm15, %xmm6
	movdqa	%xmm0, %xmm12
	pcmpeqd	%xmm5, %xmm6
	movdqa	%xmm13, %xmm0
	movdqa	-80(%rbp), %xmm13
	pand	%xmm4, %xmm0
	movdqa	%xmm5, %xmm4
	psubq	%xmm15, %xmm4
	por	%xmm12, %xmm0
	pand	%xmm4, %xmm6
	movdqa	%xmm15, %xmm4
	pcmpgtd	%xmm5, %xmm4
	por	%xmm4, %xmm6
	movdqa	%xmm5, %xmm4
	pshufd	$245, %xmm6, %xmm6
	movdqa	%xmm6, %xmm12
	pand	%xmm6, %xmm4
	pandn	%xmm15, %xmm12
	pand	%xmm6, %xmm15
	por	%xmm12, %xmm4
	movdqa	%xmm6, %xmm12
	movdqa	%xmm13, %xmm6
	pandn	%xmm5, %xmm12
	movdqa	%xmm13, %xmm5
	psubq	%xmm3, %xmm6
	pcmpeqd	%xmm3, %xmm5
	por	%xmm12, %xmm15
	pand	%xmm6, %xmm5
	movdqa	%xmm3, %xmm6
	pcmpgtd	%xmm13, %xmm6
	por	%xmm6, %xmm5
	movdqa	%xmm13, %xmm6
	pshufd	$245, %xmm5, %xmm5
	movdqa	%xmm5, %xmm12
	pand	%xmm5, %xmm6
	pandn	%xmm3, %xmm12
	pand	%xmm5, %xmm3
	por	%xmm12, %xmm6
	movdqa	%xmm5, %xmm12
	movdqa	%xmm4, %xmm5
	pandn	%xmm13, %xmm12
	pcmpeqd	%xmm6, %xmm5
	movdqa	%xmm6, %xmm13
	por	%xmm12, %xmm3
	movdqa	%xmm6, %xmm12
	psubq	%xmm4, %xmm12
	pand	%xmm12, %xmm5
	movdqa	%xmm4, %xmm12
	pcmpgtd	%xmm6, %xmm12
	por	%xmm12, %xmm5
	pshufd	$245, %xmm5, %xmm5
	movdqa	%xmm5, %xmm12
	pand	%xmm5, %xmm13
	pandn	%xmm4, %xmm12
	pand	%xmm5, %xmm4
	por	%xmm12, %xmm13
	movdqa	%xmm5, %xmm12
	movdqa	%xmm10, %xmm5
	pcmpeqd	%xmm7, %xmm5
	pandn	%xmm6, %xmm12
	movdqa	%xmm7, %xmm6
	movaps	%xmm13, -128(%rbp)
	psubq	%xmm10, %xmm6
	por	%xmm12, %xmm4
	pand	%xmm6, %xmm5
	movdqa	%xmm10, %xmm6
	pcmpgtd	%xmm7, %xmm6
	por	%xmm6, %xmm5
	movdqa	%xmm7, %xmm6
	pshufd	$245, %xmm5, %xmm5
	movdqa	%xmm5, %xmm12
	pand	%xmm5, %xmm6
	pandn	%xmm10, %xmm12
	pand	%xmm5, %xmm10
	por	%xmm12, %xmm6
	movdqa	%xmm5, %xmm12
	movdqa	%xmm15, %xmm5
	pcmpeqd	%xmm3, %xmm5
	pandn	%xmm7, %xmm12
	movdqa	%xmm3, %xmm7
	psubq	%xmm15, %xmm7
	por	%xmm12, %xmm10
	pand	%xmm7, %xmm5
	movdqa	%xmm15, %xmm7
	pcmpgtd	%xmm3, %xmm7
	por	%xmm7, %xmm5
	movdqa	%xmm3, %xmm7
	pshufd	$245, %xmm5, %xmm5
	movdqa	%xmm5, %xmm12
	pand	%xmm5, %xmm7
	pandn	%xmm15, %xmm12
	pand	%xmm5, %xmm15
	por	%xmm12, %xmm7
	movdqa	%xmm5, %xmm12
	movdqa	%xmm15, %xmm5
	pandn	%xmm3, %xmm12
	movdqa	%xmm8, %xmm3
	por	%xmm12, %xmm5
	movdqa	%xmm0, %xmm12
	psubq	%xmm0, %xmm3
	pcmpeqd	%xmm8, %xmm12
	pand	%xmm3, %xmm12
	movdqa	%xmm0, %xmm3
	pcmpgtd	%xmm8, %xmm3
	por	%xmm3, %xmm12
	movdqa	%xmm8, %xmm3
	pshufd	$245, %xmm12, %xmm12
	movdqa	%xmm12, %xmm13
	pand	%xmm12, %xmm3
	pandn	%xmm0, %xmm13
	pand	%xmm12, %xmm0
	por	%xmm13, %xmm3
	movdqa	%xmm12, %xmm13
	movdqa	%xmm7, %xmm12
	pandn	%xmm8, %xmm13
	movdqa	%xmm7, %xmm8
	por	%xmm13, %xmm0
	psubq	%xmm4, %xmm8
	movaps	%xmm0, -160(%rbp)
	movdqa	%xmm4, %xmm0
	pcmpeqd	%xmm7, %xmm0
	pand	%xmm8, %xmm0
	movdqa	%xmm4, %xmm8
	pcmpgtd	%xmm7, %xmm8
	por	%xmm8, %xmm0
	pshufd	$245, %xmm0, %xmm0
	pand	%xmm0, %xmm12
	movdqa	%xmm0, %xmm8
	pandn	%xmm4, %xmm8
	movdqa	%xmm12, %xmm15
	pand	%xmm0, %xmm4
	por	%xmm8, %xmm15
	movdqa	%xmm0, %xmm8
	movdqa	%xmm11, %xmm0
	pandn	%xmm7, %xmm8
	movdqa	%xmm1, %xmm7
	psubq	%xmm1, %xmm0
	pcmpeqd	%xmm11, %xmm7
	por	%xmm8, %xmm4
	pand	%xmm0, %xmm7
	movdqa	%xmm1, %xmm0
	pcmpgtd	%xmm11, %xmm0
	por	%xmm0, %xmm7
	movdqa	%xmm11, %xmm0
	pshufd	$245, %xmm7, %xmm7
	movdqa	%xmm7, %xmm8
	pand	%xmm7, %xmm0
	pandn	%xmm1, %xmm8
	pand	%xmm7, %xmm1
	por	%xmm8, %xmm0
	movdqa	%xmm7, %xmm8
	movdqa	%xmm9, %xmm7
	pandn	%xmm11, %xmm8
	psubq	%xmm2, %xmm7
	por	%xmm8, %xmm1
	movdqa	%xmm1, %xmm11
	movdqa	%xmm2, %xmm1
	pcmpeqd	%xmm9, %xmm1
	pand	%xmm7, %xmm1
	movdqa	%xmm2, %xmm7
	pcmpgtd	%xmm9, %xmm7
	por	%xmm7, %xmm1
	movdqa	%xmm9, %xmm7
	pshufd	$245, %xmm1, %xmm1
	movdqa	%xmm1, %xmm8
	pand	%xmm1, %xmm7
	pandn	%xmm2, %xmm8
	pand	%xmm1, %xmm2
	por	%xmm8, %xmm7
	movdqa	%xmm1, %xmm8
	movdqa	%xmm10, %xmm1
	pandn	%xmm9, %xmm8
	pcmpeqd	%xmm3, %xmm1
	por	%xmm8, %xmm2
	movdqa	%xmm3, %xmm8
	psubq	%xmm10, %xmm8
	pand	%xmm8, %xmm1
	movdqa	%xmm10, %xmm8
	pcmpgtd	%xmm3, %xmm8
	por	%xmm8, %xmm1
	movdqa	%xmm3, %xmm8
	pshufd	$245, %xmm1, %xmm1
	movdqa	%xmm1, %xmm13
	pand	%xmm1, %xmm8
	pandn	%xmm10, %xmm13
	pand	%xmm1, %xmm10
	por	%xmm13, %xmm8
	movdqa	%xmm1, %xmm13
	movdqa	%xmm14, %xmm1
	pandn	%xmm3, %xmm13
	movdqa	%xmm5, %xmm3
	psubq	%xmm5, %xmm1
	pcmpeqd	%xmm14, %xmm3
	por	%xmm13, %xmm10
	movdqa	%xmm14, %xmm13
	movaps	%xmm10, -176(%rbp)
	movdqa	-64(%rbp), %xmm9
	movdqa	%xmm6, %xmm10
	cmpq	$1, -192(%rbp)
	pand	%xmm1, %xmm3
	movdqa	%xmm5, %xmm1
	pcmpgtd	%xmm14, %xmm1
	por	%xmm1, %xmm3
	pshufd	$245, %xmm3, %xmm3
	movdqa	%xmm3, %xmm1
	pand	%xmm3, %xmm13
	pandn	%xmm5, %xmm1
	pand	%xmm3, %xmm5
	por	%xmm1, %xmm13
	movdqa	%xmm3, %xmm1
	movdqa	%xmm6, %xmm3
	pandn	%xmm14, %xmm1
	psubq	%xmm9, %xmm3
	movdqa	%xmm13, %xmm12
	por	%xmm1, %xmm5
	movdqa	%xmm9, %xmm1
	pcmpeqd	%xmm6, %xmm1
	pand	%xmm3, %xmm1
	movdqa	%xmm9, %xmm3
	pcmpgtd	%xmm6, %xmm3
	por	%xmm3, %xmm1
	pshufd	$245, %xmm1, %xmm1
	movdqa	%xmm1, %xmm3
	pand	%xmm1, %xmm10
	pandn	%xmm9, %xmm3
	por	%xmm3, %xmm10
	movdqa	%xmm1, %xmm3
	pand	%xmm9, %xmm1
	movdqa	%xmm0, %xmm9
	pandn	%xmm6, %xmm3
	pcmpeqd	%xmm13, %xmm9
	por	%xmm3, %xmm1
	movdqa	%xmm13, %xmm3
	psubq	%xmm0, %xmm3
	pand	%xmm3, %xmm9
	movdqa	%xmm0, %xmm3
	pcmpgtd	%xmm13, %xmm3
	por	%xmm3, %xmm9
	pshufd	$245, %xmm9, %xmm9
	movdqa	%xmm9, %xmm3
	pand	%xmm9, %xmm12
	pandn	%xmm0, %xmm3
	por	%xmm3, %xmm12
	movdqa	%xmm9, %xmm3
	pand	%xmm0, %xmm9
	pandn	%xmm13, %xmm3
	movdqa	%xmm11, %xmm0
	por	%xmm3, %xmm9
	movdqa	%xmm5, %xmm3
	psubq	%xmm5, %xmm0
	pcmpeqd	%xmm11, %xmm3
	pand	%xmm0, %xmm3
	movdqa	%xmm5, %xmm0
	pcmpgtd	%xmm11, %xmm0
	por	%xmm0, %xmm3
	movdqa	%xmm11, %xmm0
	pshufd	$245, %xmm3, %xmm3
	movdqa	%xmm3, %xmm6
	pand	%xmm3, %xmm0
	pandn	%xmm5, %xmm6
	por	%xmm6, %xmm0
	movdqa	%xmm3, %xmm6
	pand	%xmm5, %xmm3
	movdqa	%xmm7, %xmm5
	pandn	%xmm11, %xmm6
	movdqa	%xmm10, %xmm11
	pcmpeqd	%xmm10, %xmm5
	por	%xmm6, %xmm3
	movdqa	%xmm10, %xmm6
	psubq	%xmm7, %xmm6
	pand	%xmm6, %xmm5
	movdqa	%xmm7, %xmm6
	pcmpgtd	%xmm10, %xmm6
	por	%xmm6, %xmm5
	pshufd	$245, %xmm5, %xmm5
	movdqa	%xmm5, %xmm6
	pand	%xmm5, %xmm11
	pandn	%xmm7, %xmm6
	por	%xmm6, %xmm11
	movdqa	%xmm5, %xmm6
	pand	%xmm7, %xmm5
	movdqa	%xmm1, %xmm7
	pandn	%xmm10, %xmm6
	pcmpeqd	%xmm2, %xmm7
	por	%xmm6, %xmm5
	movdqa	%xmm2, %xmm6
	psubq	%xmm1, %xmm6
	pand	%xmm6, %xmm7
	movdqa	%xmm1, %xmm6
	pcmpgtd	%xmm2, %xmm6
	por	%xmm6, %xmm7
	movdqa	%xmm2, %xmm6
	pshufd	$245, %xmm7, %xmm7
	movdqa	%xmm7, %xmm10
	pand	%xmm7, %xmm6
	pandn	%xmm1, %xmm10
	pand	%xmm7, %xmm1
	por	%xmm10, %xmm6
	movdqa	%xmm7, %xmm10
	movdqa	%xmm12, %xmm7
	pandn	%xmm2, %xmm10
	movdqa	%xmm4, %xmm2
	psubq	%xmm4, %xmm7
	pcmpeqd	%xmm12, %xmm2
	por	%xmm10, %xmm1
	movdqa	%xmm12, %xmm10
	pand	%xmm7, %xmm2
	movdqa	%xmm4, %xmm7
	pcmpgtd	%xmm12, %xmm7
	por	%xmm7, %xmm2
	pshufd	$245, %xmm2, %xmm2
	movdqa	%xmm2, %xmm7
	pand	%xmm2, %xmm10
	pandn	%xmm4, %xmm7
	pand	%xmm2, %xmm4
	por	%xmm7, %xmm10
	movdqa	%xmm2, %xmm7
	movdqa	%xmm0, %xmm2
	pandn	%xmm12, %xmm7
	pcmpeqd	%xmm9, %xmm2
	por	%xmm7, %xmm4
	movdqa	%xmm9, %xmm7
	movaps	%xmm4, -64(%rbp)
	movdqa	%xmm9, %xmm4
	psubq	%xmm0, %xmm4
	pand	%xmm4, %xmm2
	movdqa	%xmm0, %xmm4
	pcmpgtd	%xmm9, %xmm4
	por	%xmm4, %xmm2
	pshufd	$245, %xmm2, %xmm2
	movdqa	%xmm2, %xmm4
	pand	%xmm2, %xmm7
	pandn	%xmm0, %xmm4
	pand	%xmm2, %xmm0
	por	%xmm4, %xmm7
	movdqa	%xmm2, %xmm4
	movdqa	%xmm3, %xmm2
	pandn	%xmm9, %xmm4
	pcmpeqd	%xmm11, %xmm2
	movaps	%xmm7, -80(%rbp)
	por	%xmm4, %xmm0
	movdqa	%xmm11, %xmm4
	psubq	%xmm3, %xmm4
	pand	%xmm4, %xmm2
	movdqa	%xmm3, %xmm4
	pcmpgtd	%xmm11, %xmm4
	por	%xmm4, %xmm2
	movdqa	%xmm11, %xmm4
	pshufd	$245, %xmm2, %xmm2
	movdqa	%xmm2, %xmm7
	pand	%xmm2, %xmm4
	pandn	%xmm3, %xmm7
	pand	%xmm2, %xmm3
	por	%xmm7, %xmm4
	movdqa	%xmm2, %xmm7
	movdqa	%xmm5, %xmm2
	pandn	%xmm11, %xmm7
	psubq	%xmm6, %xmm2
	por	%xmm7, %xmm3
	movdqa	%xmm6, %xmm7
	pcmpeqd	%xmm5, %xmm7
	pand	%xmm2, %xmm7
	movdqa	%xmm6, %xmm2
	pcmpgtd	%xmm5, %xmm2
	por	%xmm2, %xmm7
	movdqa	%xmm5, %xmm2
	pshufd	$245, %xmm7, %xmm7
	movdqa	%xmm7, %xmm9
	pand	%xmm7, %xmm2
	pandn	%xmm6, %xmm9
	pand	%xmm7, %xmm6
	por	%xmm9, %xmm2
	movdqa	%xmm7, %xmm9
	movdqa	%xmm8, %xmm7
	pandn	%xmm5, %xmm9
	movdqa	%xmm1, %xmm5
	psubq	%xmm1, %xmm7
	pcmpeqd	%xmm8, %xmm5
	por	%xmm9, %xmm6
	pand	%xmm7, %xmm5
	movdqa	%xmm1, %xmm7
	pcmpgtd	%xmm8, %xmm7
	por	%xmm7, %xmm5
	movdqa	%xmm8, %xmm7
	pshufd	$245, %xmm5, %xmm5
	movdqa	%xmm5, %xmm9
	pand	%xmm5, %xmm7
	pandn	%xmm1, %xmm9
	pand	%xmm5, %xmm1
	por	%xmm9, %xmm7
	movdqa	%xmm5, %xmm9
	movdqa	%xmm4, %xmm5
	pcmpeqd	%xmm0, %xmm5
	pandn	%xmm8, %xmm9
	movdqa	%xmm0, %xmm8
	psubq	%xmm4, %xmm8
	por	%xmm9, %xmm1
	movdqa	%xmm0, %xmm9
	pand	%xmm8, %xmm5
	movdqa	%xmm4, %xmm8
	pcmpgtd	%xmm0, %xmm8
	por	%xmm8, %xmm5
	pshufd	$245, %xmm5, %xmm5
	movdqa	%xmm5, %xmm8
	pand	%xmm5, %xmm9
	pandn	%xmm4, %xmm8
	pand	%xmm5, %xmm4
	por	%xmm8, %xmm9
	movdqa	%xmm5, %xmm8
	pandn	%xmm0, %xmm8
	movdqa	%xmm3, %xmm0
	movaps	%xmm9, -96(%rbp)
	por	%xmm8, %xmm4
	psubq	%xmm2, %xmm0
	movdqa	%xmm4, %xmm14
	movdqa	%xmm2, %xmm4
	pcmpeqd	%xmm3, %xmm4
	pand	%xmm0, %xmm4
	movdqa	%xmm2, %xmm0
	pcmpgtd	%xmm3, %xmm0
	por	%xmm0, %xmm4
	movdqa	%xmm3, %xmm0
	pshufd	$245, %xmm4, %xmm4
	movdqa	%xmm4, %xmm5
	pand	%xmm4, %xmm0
	pandn	%xmm2, %xmm5
	pand	%xmm4, %xmm2
	por	%xmm5, %xmm0
	movdqa	%xmm4, %xmm5
	pandn	%xmm3, %xmm5
	por	%xmm5, %xmm2
	jbe	.L368
	movdqa	-112(%rbp), %xmm12
	pshufd	$78, %xmm7, %xmm7
	pshufd	$78, %xmm6, %xmm6
	pshufd	$78, -144(%rbp), %xmm9
	pshufd	$78, %xmm1, %xmm11
	movdqa	-128(%rbp), %xmm8
	pshufd	$78, -160(%rbp), %xmm4
	pshufd	$78, -176(%rbp), %xmm5
	movdqa	%xmm12, %xmm3
	movdqa	%xmm12, %xmm1
	movdqa	%xmm12, %xmm13
	movaps	%xmm5, -192(%rbp)
	pcmpeqd	%xmm9, %xmm3
	psubq	%xmm9, %xmm1
	pshufd	$78, %xmm2, %xmm2
	movaps	%xmm11, -176(%rbp)
	pshufd	$78, %xmm0, %xmm0
	pand	%xmm1, %xmm3
	movdqa	%xmm9, %xmm1
	pcmpgtd	%xmm12, %xmm1
	por	%xmm1, %xmm3
	pshufd	$245, %xmm3, %xmm3
	movdqa	%xmm3, %xmm1
	pand	%xmm3, %xmm13
	pandn	%xmm9, %xmm1
	por	%xmm1, %xmm13
	movdqa	%xmm3, %xmm1
	pand	%xmm9, %xmm3
	pandn	%xmm12, %xmm1
	movdqa	%xmm4, %xmm12
	movdqa	%xmm13, %xmm9
	movaps	%xmm1, -256(%rbp)
	movdqa	%xmm8, %xmm1
	psubq	%xmm4, %xmm1
	pcmpeqd	%xmm8, %xmm4
	movaps	%xmm12, -208(%rbp)
	pand	%xmm1, %xmm4
	movdqa	%xmm12, %xmm1
	movdqa	%xmm8, %xmm12
	pcmpgtd	%xmm8, %xmm1
	por	%xmm1, %xmm4
	pshufd	$245, %xmm4, %xmm4
	movdqa	%xmm4, %xmm1
	pandn	-208(%rbp), %xmm1
	pand	%xmm4, %xmm12
	por	%xmm1, %xmm12
	movdqa	%xmm4, %xmm1
	pandn	%xmm8, %xmm1
	movdqa	%xmm15, %xmm8
	psubq	%xmm5, %xmm8
	movaps	%xmm1, -272(%rbp)
	movdqa	%xmm8, %xmm1
	movdqa	%xmm5, %xmm8
	pcmpeqd	%xmm15, %xmm8
	pand	%xmm1, %xmm8
	movdqa	%xmm5, %xmm1
	movdqa	%xmm15, %xmm5
	pcmpgtd	%xmm15, %xmm1
	por	%xmm1, %xmm8
	pshufd	$245, %xmm8, %xmm8
	movdqa	%xmm8, %xmm1
	pandn	-192(%rbp), %xmm1
	pand	%xmm8, %xmm5
	por	%xmm1, %xmm5
	movdqa	%xmm8, %xmm1
	pand	-192(%rbp), %xmm8
	pandn	%xmm15, %xmm1
	movaps	%xmm5, -128(%rbp)
	movdqa	%xmm10, %xmm5
	movaps	%xmm1, -288(%rbp)
	movdqa	%xmm11, %xmm1
	psubq	%xmm11, %xmm5
	pcmpeqd	%xmm10, %xmm1
	pand	%xmm5, %xmm1
	movdqa	%xmm11, %xmm5
	movdqa	%xmm10, %xmm11
	pcmpgtd	%xmm10, %xmm5
	por	%xmm5, %xmm1
	pshufd	$245, %xmm1, %xmm1
	pand	%xmm1, %xmm11
	movdqa	%xmm1, %xmm5
	pandn	-176(%rbp), %xmm5
	movdqa	%xmm11, %xmm15
	movdqa	%xmm1, %xmm11
	pand	-176(%rbp), %xmm1
	por	%xmm5, %xmm15
	pandn	%xmm10, %xmm11
	movaps	%xmm15, -144(%rbp)
	movdqa	-64(%rbp), %xmm15
	movaps	%xmm11, -304(%rbp)
	por	-304(%rbp), %xmm1
	movdqa	%xmm15, %xmm5
	movdqa	%xmm15, %xmm10
	pcmpeqd	%xmm7, %xmm5
	psubq	%xmm7, %xmm10
	pshufd	$78, %xmm1, %xmm1
	pand	%xmm10, %xmm5
	movdqa	%xmm7, %xmm10
	pcmpgtd	%xmm15, %xmm10
	por	%xmm10, %xmm5
	pshufd	$245, %xmm5, %xmm5
	movdqa	%xmm5, %xmm10
	pandn	%xmm7, %xmm10
	pand	%xmm5, %xmm7
	movaps	%xmm10, -320(%rbp)
	movdqa	%xmm5, %xmm10
	pand	-64(%rbp), %xmm5
	por	-320(%rbp), %xmm5
	pandn	%xmm15, %xmm10
	por	%xmm10, %xmm7
	movdqa	-80(%rbp), %xmm10
	pshufd	$78, %xmm5, %xmm5
	movaps	%xmm7, -112(%rbp)
	movdqa	%xmm10, %xmm11
	movdqa	%xmm10, %xmm7
	pcmpeqd	%xmm6, %xmm11
	psubq	%xmm6, %xmm7
	pand	%xmm7, %xmm11
	movdqa	%xmm6, %xmm7
	pcmpgtd	%xmm10, %xmm7
	por	%xmm7, %xmm11
	pshufd	$245, %xmm11, %xmm11
	movdqa	%xmm11, %xmm7
	pandn	%xmm6, %xmm7
	pand	%xmm11, %xmm6
	movaps	%xmm7, -336(%rbp)
	movdqa	%xmm11, %xmm7
	pand	-80(%rbp), %xmm11
	por	-336(%rbp), %xmm11
	pandn	%xmm10, %xmm7
	movdqa	-96(%rbp), %xmm10
	por	%xmm7, %xmm6
	pshufd	$78, %xmm11, %xmm11
	movdqa	%xmm10, %xmm7
	movaps	%xmm6, -160(%rbp)
	movdqa	%xmm10, %xmm6
	pcmpeqd	%xmm2, %xmm7
	psubq	%xmm2, %xmm6
	pand	%xmm6, %xmm7
	movdqa	%xmm2, %xmm6
	pcmpgtd	%xmm10, %xmm6
	por	%xmm6, %xmm7
	pshufd	$245, %xmm7, %xmm7
	movdqa	%xmm7, %xmm6
	pandn	%xmm2, %xmm6
	pand	%xmm7, %xmm2
	movaps	%xmm6, -352(%rbp)
	movdqa	%xmm7, %xmm6
	por	-288(%rbp), %xmm8
	pand	-96(%rbp), %xmm7
	pandn	%xmm10, %xmm6
	por	-256(%rbp), %xmm3
	por	-352(%rbp), %xmm7
	por	%xmm6, %xmm2
	movdqa	%xmm14, %xmm6
	pand	-208(%rbp), %xmm4
	psubq	%xmm0, %xmm6
	pshufd	$78, %xmm7, %xmm7
	por	-272(%rbp), %xmm4
	movdqa	%xmm6, %xmm10
	movdqa	%xmm0, %xmm6
	movaps	%xmm7, -80(%rbp)
	pshufd	$78, %xmm8, %xmm8
	pcmpeqd	%xmm14, %xmm6
	pshufd	$78, %xmm4, %xmm4
	movaps	%xmm4, -96(%rbp)
	pand	%xmm10, %xmm6
	movdqa	%xmm0, %xmm10
	pcmpgtd	%xmm14, %xmm10
	por	%xmm10, %xmm6
	pshufd	$245, %xmm6, %xmm6
	movdqa	%xmm6, %xmm10
	movdqa	%xmm6, %xmm15
	pandn	%xmm0, %xmm10
	pand	%xmm6, %xmm0
	pand	%xmm14, %xmm6
	por	%xmm10, %xmm6
	pandn	%xmm14, %xmm15
	movdqa	-80(%rbp), %xmm14
	pshufd	$78, %xmm6, %xmm6
	por	%xmm15, %xmm0
	pshufd	$78, %xmm3, %xmm15
	movdqa	%xmm6, %xmm10
	movdqa	%xmm13, %xmm3
	movdqa	%xmm15, %xmm7
	pcmpeqd	%xmm13, %xmm10
	pcmpeqd	%xmm0, %xmm7
	psubq	%xmm6, %xmm3
	pand	%xmm3, %xmm10
	movdqa	%xmm6, %xmm3
	pcmpgtd	%xmm13, %xmm3
	por	%xmm3, %xmm10
	pshufd	$245, %xmm10, %xmm10
	movdqa	%xmm10, %xmm3
	pand	%xmm10, %xmm9
	movdqa	%xmm10, %xmm4
	pandn	%xmm6, %xmm3
	pandn	%xmm13, %xmm4
	movdqa	%xmm12, %xmm13
	por	%xmm3, %xmm9
	movdqa	%xmm0, %xmm3
	pand	%xmm6, %xmm10
	movaps	%xmm4, -256(%rbp)
	psubq	%xmm15, %xmm3
	movdqa	%xmm0, %xmm4
	pand	%xmm3, %xmm7
	movdqa	%xmm15, %xmm3
	pcmpgtd	%xmm0, %xmm3
	por	%xmm3, %xmm7
	pshufd	$245, %xmm7, %xmm7
	movdqa	%xmm7, %xmm3
	pand	%xmm7, %xmm4
	pandn	%xmm15, %xmm3
	por	%xmm3, %xmm4
	movdqa	%xmm7, %xmm3
	pand	%xmm15, %xmm7
	pandn	%xmm0, %xmm3
	movdqa	%xmm12, %xmm0
	psubq	%xmm14, %xmm0
	movaps	%xmm3, -272(%rbp)
	movdqa	%xmm0, %xmm3
	movdqa	%xmm14, %xmm0
	pcmpeqd	%xmm12, %xmm0
	pand	%xmm3, %xmm0
	movdqa	%xmm14, %xmm3
	movdqa	%xmm2, %xmm14
	pcmpgtd	%xmm12, %xmm3
	por	%xmm3, %xmm0
	pshufd	$245, %xmm0, %xmm0
	movdqa	%xmm0, %xmm3
	pandn	-80(%rbp), %xmm3
	pand	%xmm0, %xmm13
	movaps	%xmm0, -288(%rbp)
	por	%xmm3, %xmm13
	movdqa	%xmm0, %xmm3
	movdqa	-112(%rbp), %xmm0
	movaps	%xmm13, -176(%rbp)
	movdqa	-96(%rbp), %xmm13
	pandn	%xmm12, %xmm3
	movdqa	%xmm2, %xmm12
	movaps	%xmm3, -304(%rbp)
	movdqa	%xmm13, %xmm3
	psubq	%xmm13, %xmm12
	pcmpeqd	%xmm2, %xmm3
	pand	%xmm12, %xmm3
	movdqa	%xmm13, %xmm12
	movdqa	-128(%rbp), %xmm13
	pcmpgtd	%xmm2, %xmm12
	por	%xmm12, %xmm3
	pshufd	$245, %xmm3, %xmm3
	movdqa	%xmm3, %xmm12
	pandn	-96(%rbp), %xmm12
	pand	%xmm3, %xmm14
	por	%xmm12, %xmm14
	movdqa	%xmm3, %xmm12
	pandn	%xmm2, %xmm12
	movdqa	%xmm13, %xmm2
	movaps	%xmm14, -192(%rbp)
	pcmpeqd	%xmm11, %xmm2
	movaps	%xmm12, -320(%rbp)
	movdqa	%xmm13, %xmm12
	psubq	%xmm11, %xmm12
	pand	%xmm12, %xmm2
	movdqa	%xmm11, %xmm12
	pcmpgtd	%xmm13, %xmm12
	por	%xmm12, %xmm2
	pshufd	$245, %xmm2, %xmm2
	movdqa	%xmm2, %xmm14
	movdqa	%xmm2, %xmm12
	pandn	%xmm11, %xmm14
	pand	%xmm2, %xmm11
	pandn	%xmm13, %xmm12
	movdqa	%xmm11, %xmm13
	movaps	%xmm14, -336(%rbp)
	pand	-128(%rbp), %xmm2
	por	-336(%rbp), %xmm2
	por	%xmm12, %xmm13
	movdqa	-160(%rbp), %xmm12
	movaps	%xmm13, -208(%rbp)
	pshufd	$78, %xmm2, %xmm2
	movdqa	%xmm12, %xmm14
	movdqa	%xmm12, %xmm11
	pcmpeqd	%xmm8, %xmm14
	psubq	%xmm8, %xmm11
	pand	%xmm11, %xmm14
	movdqa	%xmm8, %xmm11
	pcmpgtd	%xmm12, %xmm11
	por	%xmm11, %xmm14
	pshufd	$245, %xmm14, %xmm14
	movdqa	%xmm14, %xmm11
	pandn	%xmm8, %xmm11
	pand	%xmm14, %xmm8
	movaps	%xmm11, -352(%rbp)
	movdqa	%xmm14, %xmm11
	pandn	%xmm12, %xmm11
	movdqa	-144(%rbp), %xmm12
	por	%xmm11, %xmm8
	movaps	%xmm8, -64(%rbp)
	movdqa	%xmm12, %xmm8
	movdqa	%xmm12, %xmm11
	pcmpeqd	%xmm5, %xmm8
	psubq	%xmm5, %xmm11
	pand	%xmm11, %xmm8
	movdqa	%xmm5, %xmm11
	pcmpgtd	%xmm12, %xmm11
	por	%xmm11, %xmm8
	pshufd	$245, %xmm8, %xmm8
	movdqa	%xmm8, %xmm11
	pandn	%xmm5, %xmm11
	pand	%xmm8, %xmm5
	movdqa	%xmm11, %xmm13
	movdqa	%xmm8, %xmm11
	pand	-144(%rbp), %xmm8
	pandn	%xmm12, %xmm11
	movdqa	%xmm0, %xmm12
	por	%xmm11, %xmm5
	movdqa	%xmm0, %xmm11
	psubq	%xmm1, %xmm12
	pcmpeqd	%xmm1, %xmm11
	por	%xmm13, %xmm8
	pshufd	$78, %xmm8, %xmm8
	pand	%xmm12, %xmm11
	movdqa	%xmm1, %xmm12
	pcmpgtd	-112(%rbp), %xmm12
	por	%xmm12, %xmm11
	pshufd	$245, %xmm11, %xmm11
	movdqa	%xmm11, %xmm12
	movdqa	%xmm11, %xmm0
	pandn	-112(%rbp), %xmm0
	pandn	%xmm1, %xmm12
	pand	%xmm11, %xmm1
	por	%xmm0, %xmm1
	movdqa	-288(%rbp), %xmm0
	movdqa	-112(%rbp), %xmm6
	por	-272(%rbp), %xmm7
	pand	-96(%rbp), %xmm3
	pand	%xmm11, %xmm6
	pand	-80(%rbp), %xmm0
	por	-256(%rbp), %xmm10
	pshufd	$78, %xmm7, %xmm7
	por	%xmm12, %xmm6
	movdqa	%xmm9, %xmm12
	movdqa	-208(%rbp), %xmm15
	movaps	%xmm7, -96(%rbp)
	movdqa	%xmm8, %xmm7
	pshufd	$78, %xmm6, %xmm6
	pshufd	$78, %xmm10, %xmm10
	pcmpeqd	%xmm9, %xmm7
	movaps	%xmm6, -112(%rbp)
	movdqa	%xmm9, %xmm6
	por	-304(%rbp), %xmm0
	psubq	%xmm8, %xmm6
	movaps	%xmm10, -80(%rbp)
	por	-320(%rbp), %xmm3
	pand	-160(%rbp), %xmm14
	por	-352(%rbp), %xmm14
	pshufd	$78, %xmm0, %xmm0
	pand	%xmm6, %xmm7
	movdqa	%xmm8, %xmm6
	pshufd	$78, %xmm3, %xmm3
	pcmpgtd	%xmm9, %xmm6
	pshufd	$78, %xmm14, %xmm14
	por	%xmm6, %xmm7
	pshufd	$245, %xmm7, %xmm7
	pand	%xmm7, %xmm12
	movdqa	%xmm7, %xmm6
	movdqa	%xmm12, %xmm13
	movdqa	%xmm7, %xmm12
	pandn	%xmm8, %xmm6
	pandn	%xmm9, %xmm12
	por	%xmm6, %xmm13
	pand	%xmm8, %xmm7
	movdqa	-176(%rbp), %xmm9
	movaps	%xmm12, -272(%rbp)
	movdqa	%xmm5, %xmm12
	movdqa	%xmm9, %xmm11
	movdqa	%xmm9, %xmm6
	psubq	%xmm10, %xmm12
	pcmpeqd	%xmm2, %xmm11
	psubq	%xmm2, %xmm6
	pand	%xmm6, %xmm11
	movdqa	%xmm2, %xmm6
	pcmpgtd	%xmm9, %xmm6
	por	%xmm6, %xmm11
	pshufd	$245, %xmm11, %xmm11
	movdqa	%xmm11, %xmm6
	pandn	%xmm2, %xmm6
	pand	%xmm11, %xmm2
	movaps	%xmm6, -288(%rbp)
	movdqa	%xmm11, %xmm6
	pandn	%xmm9, %xmm6
	por	%xmm6, %xmm2
	movdqa	%xmm10, %xmm6
	pcmpeqd	%xmm5, %xmm6
	pand	%xmm12, %xmm6
	movdqa	%xmm10, %xmm12
	pcmpgtd	%xmm5, %xmm12
	por	%xmm12, %xmm6
	pshufd	$245, %xmm6, %xmm6
	movdqa	%xmm6, %xmm10
	movdqa	%xmm6, %xmm12
	pandn	-80(%rbp), %xmm12
	pandn	%xmm5, %xmm10
	movaps	%xmm10, -304(%rbp)
	movdqa	%xmm15, %xmm10
	movdqa	%xmm12, %xmm9
	movdqa	%xmm5, %xmm12
	pcmpeqd	%xmm0, %xmm10
	movdqa	%xmm15, %xmm5
	pand	%xmm6, %xmm12
	psubq	%xmm0, %xmm5
	por	%xmm9, %xmm12
	pand	%xmm5, %xmm10
	movdqa	%xmm0, %xmm5
	pcmpgtd	%xmm15, %xmm5
	por	%xmm5, %xmm10
	pshufd	$245, %xmm10, %xmm10
	movdqa	%xmm10, %xmm5
	pandn	%xmm0, %xmm5
	pand	%xmm10, %xmm0
	movaps	%xmm5, -320(%rbp)
	movdqa	%xmm10, %xmm5
	pandn	%xmm15, %xmm5
	movdqa	%xmm4, %xmm15
	por	%xmm5, %xmm0
	movdqa	-112(%rbp), %xmm5
	movaps	%xmm0, -144(%rbp)
	psubq	%xmm5, %xmm15
	movdqa	%xmm15, %xmm9
	movdqa	%xmm5, %xmm15
	pcmpeqd	%xmm4, %xmm5
	pand	%xmm9, %xmm5
	movdqa	%xmm15, %xmm9
	movdqa	%xmm4, %xmm15
	pcmpgtd	%xmm4, %xmm9
	por	%xmm9, %xmm5
	pshufd	$245, %xmm5, %xmm5
	movdqa	%xmm5, %xmm9
	pandn	-112(%rbp), %xmm9
	pand	%xmm5, %xmm15
	por	%xmm9, %xmm15
	movdqa	%xmm5, %xmm9
	movaps	%xmm15, -160(%rbp)
	pandn	%xmm4, %xmm9
	movdqa	-192(%rbp), %xmm15
	movaps	%xmm9, -336(%rbp)
	movdqa	%xmm15, %xmm9
	movdqa	%xmm15, %xmm4
	pcmpeqd	%xmm14, %xmm9
	psubq	%xmm14, %xmm4
	pand	%xmm4, %xmm9
	movdqa	%xmm14, %xmm4
	pcmpgtd	%xmm15, %xmm4
	por	%xmm4, %xmm9
	pshufd	$245, %xmm9, %xmm9
	movdqa	%xmm9, %xmm0
	movdqa	%xmm9, %xmm4
	pandn	%xmm15, %xmm0
	movdqa	-96(%rbp), %xmm15
	pandn	%xmm14, %xmm4
	pand	%xmm9, %xmm14
	por	%xmm0, %xmm14
	movaps	%xmm4, -352(%rbp)
	movdqa	%xmm1, %xmm0
	movdqa	%xmm15, %xmm4
	movaps	%xmm14, -128(%rbp)
	movdqa	%xmm15, %xmm14
	psubq	%xmm15, %xmm0
	pcmpeqd	%xmm1, %xmm4
	pcmpgtd	%xmm1, %xmm14
	pand	%xmm0, %xmm4
	por	%xmm14, %xmm4
	pshufd	$245, %xmm4, %xmm4
	movdqa	%xmm4, %xmm0
	pandn	-96(%rbp), %xmm0
	movdqa	%xmm0, %xmm14
	movdqa	%xmm1, %xmm0
	pand	%xmm4, %xmm0
	movdqa	%xmm0, %xmm15
	movdqa	%xmm4, %xmm0
	pandn	%xmm1, %xmm0
	por	%xmm14, %xmm15
	movaps	%xmm0, -368(%rbp)
	movdqa	-64(%rbp), %xmm0
	movdqa	%xmm0, %xmm1
	movdqa	%xmm0, %xmm14
	pcmpeqd	%xmm3, %xmm1
	psubq	%xmm3, %xmm14
	pand	%xmm14, %xmm1
	movdqa	%xmm3, %xmm14
	pcmpgtd	-64(%rbp), %xmm14
	pand	-80(%rbp), %xmm6
	pand	-112(%rbp), %xmm5
	pand	-176(%rbp), %xmm11
	por	-272(%rbp), %xmm7
	por	-288(%rbp), %xmm11
	pand	-96(%rbp), %xmm4
	por	%xmm14, %xmm1
	pshufd	$78, %xmm7, %xmm7
	movdqa	-208(%rbp), %xmm8
	por	-304(%rbp), %xmm6
	pshufd	$245, %xmm1, %xmm1
	pshufd	$78, %xmm11, %xmm11
	pand	-192(%rbp), %xmm9
	movdqa	%xmm1, %xmm14
	movdqa	%xmm1, %xmm0
	pandn	-64(%rbp), %xmm0
	pandn	%xmm3, %xmm14
	pand	%xmm1, %xmm3
	pand	%xmm10, %xmm8
	por	%xmm0, %xmm3
	movdqa	%xmm13, %xmm10
	por	-320(%rbp), %xmm8
	movaps	%xmm14, -384(%rbp)
	movaps	%xmm3, -256(%rbp)
	movdqa	-64(%rbp), %xmm3
	psubq	%xmm11, %xmm10
	pshufd	$78, %xmm6, %xmm6
	pshufd	$78, %xmm8, %xmm8
	por	-336(%rbp), %xmm5
	por	-352(%rbp), %xmm9
	pand	%xmm1, %xmm3
	movdqa	%xmm11, %xmm1
	por	-384(%rbp), %xmm3
	pcmpeqd	%xmm13, %xmm1
	pshufd	$78, %xmm9, %xmm9
	pshufd	$78, %xmm5, %xmm5
	pshufd	$78, %xmm3, %xmm3
	por	-368(%rbp), %xmm4
	pand	%xmm10, %xmm1
	movdqa	%xmm11, %xmm10
	pshufd	$78, %xmm4, %xmm4
	pcmpgtd	%xmm13, %xmm10
	por	%xmm10, %xmm1
	movdqa	%xmm13, %xmm10
	pshufd	$245, %xmm1, %xmm1
	movdqa	%xmm1, %xmm0
	pand	%xmm1, %xmm10
	pandn	%xmm11, %xmm0
	por	%xmm0, %xmm10
	movdqa	%xmm1, %xmm0
	pand	%xmm11, %xmm1
	movdqa	%xmm7, %xmm11
	pandn	%xmm13, %xmm0
	movdqa	%xmm2, %xmm13
	pcmpeqd	%xmm2, %xmm11
	psubq	%xmm7, %xmm13
	por	%xmm0, %xmm1
	movdqa	%xmm2, %xmm0
	movaps	%xmm1, -64(%rbp)
	movdqa	-144(%rbp), %xmm1
	pand	%xmm13, %xmm11
	movdqa	%xmm7, %xmm13
	pcmpgtd	%xmm2, %xmm13
	por	%xmm13, %xmm11
	pshufd	$245, %xmm11, %xmm11
	movdqa	%xmm11, %xmm13
	pand	%xmm11, %xmm0
	pandn	%xmm7, %xmm13
	por	%xmm0, %xmm13
	movdqa	%xmm11, %xmm0
	pand	%xmm7, %xmm11
	pandn	%xmm2, %xmm0
	movdqa	%xmm8, %xmm2
	movdqa	%xmm12, %xmm7
	pcmpeqd	%xmm12, %xmm2
	psubq	%xmm8, %xmm7
	movdqa	%xmm0, %xmm14
	por	%xmm11, %xmm14
	movdqa	%xmm12, %xmm11
	movdqa	%xmm1, %xmm0
	pand	%xmm7, %xmm2
	movdqa	%xmm8, %xmm7
	pcmpgtd	%xmm12, %xmm7
	por	%xmm7, %xmm2
	pshufd	$245, %xmm2, %xmm2
	movdqa	%xmm2, %xmm7
	pand	%xmm2, %xmm11
	pandn	%xmm8, %xmm7
	por	%xmm7, %xmm11
	movdqa	%xmm2, %xmm7
	pand	%xmm8, %xmm2
	pandn	%xmm12, %xmm7
	por	%xmm7, %xmm2
	movdqa	%xmm1, %xmm7
	movdqa	%xmm2, %xmm12
	movdqa	%xmm6, %xmm2
	psubq	%xmm6, %xmm7
	pcmpeqd	%xmm1, %xmm2
	pand	%xmm7, %xmm2
	movdqa	%xmm6, %xmm7
	pcmpgtd	%xmm1, %xmm7
	por	%xmm7, %xmm2
	pshufd	$245, %xmm2, %xmm2
	pand	%xmm2, %xmm0
	movdqa	%xmm2, %xmm7
	pandn	%xmm6, %xmm7
	movdqa	%xmm0, %xmm8
	por	%xmm7, %xmm8
	movdqa	%xmm2, %xmm7
	pand	%xmm6, %xmm2
	pandn	%xmm1, %xmm7
	movdqa	-160(%rbp), %xmm1
	por	%xmm2, %xmm7
	movdqa	%xmm1, %xmm0
	movdqa	%xmm1, %xmm2
	movdqa	%xmm1, %xmm6
	pcmpeqd	%xmm9, %xmm0
	psubq	%xmm9, %xmm2
	pand	%xmm2, %xmm0
	movdqa	%xmm9, %xmm2
	pcmpgtd	%xmm1, %xmm2
	por	%xmm2, %xmm0
	pshufd	$245, %xmm0, %xmm0
	movdqa	%xmm0, %xmm2
	pand	%xmm0, %xmm6
	pandn	%xmm9, %xmm2
	por	%xmm2, %xmm6
	movdqa	%xmm0, %xmm2
	pand	%xmm9, %xmm0
	pandn	%xmm1, %xmm2
	movaps	%xmm6, -144(%rbp)
	movdqa	-128(%rbp), %xmm6
	por	%xmm2, %xmm0
	movdqa	%xmm0, %xmm9
	movdqa	%xmm6, %xmm0
	movdqa	%xmm6, %xmm2
	pcmpeqd	%xmm5, %xmm0
	psubq	%xmm5, %xmm2
	pand	%xmm2, %xmm0
	movdqa	%xmm5, %xmm2
	pcmpgtd	%xmm6, %xmm2
	por	%xmm2, %xmm0
	pshufd	$245, %xmm0, %xmm0
	movdqa	%xmm0, %xmm1
	pandn	-128(%rbp), %xmm1
	movdqa	%xmm0, %xmm2
	pand	%xmm0, %xmm6
	pand	%xmm5, %xmm0
	pandn	%xmm5, %xmm2
	por	%xmm1, %xmm0
	movdqa	%xmm3, %xmm1
	por	%xmm2, %xmm6
	pcmpeqd	%xmm15, %xmm1
	movdqa	%xmm15, %xmm2
	movdqa	%xmm15, %xmm5
	movaps	%xmm0, -160(%rbp)
	psubq	%xmm3, %xmm2
	movdqa	%xmm1, %xmm0
	pand	%xmm2, %xmm0
	movdqa	%xmm3, %xmm2
	pcmpgtd	%xmm15, %xmm2
	por	%xmm2, %xmm0
	pshufd	$245, %xmm0, %xmm0
	movdqa	%xmm0, %xmm2
	pand	%xmm0, %xmm5
	pandn	%xmm3, %xmm2
	por	%xmm2, %xmm5
	movdqa	%xmm0, %xmm2
	pand	%xmm3, %xmm0
	pandn	%xmm15, %xmm2
	movdqa	-256(%rbp), %xmm15
	por	%xmm2, %xmm0
	movdqa	%xmm15, %xmm1
	movdqa	%xmm15, %xmm2
	movdqa	%xmm15, %xmm3
	movaps	%xmm0, -176(%rbp)
	pcmpeqd	%xmm4, %xmm1
	psubq	%xmm4, %xmm2
	movdqa	%xmm1, %xmm0
	pand	%xmm2, %xmm0
	movdqa	%xmm4, %xmm2
	pcmpgtd	%xmm15, %xmm2
	por	%xmm2, %xmm0
	pshufd	$245, %xmm0, %xmm0
	movdqa	%xmm0, %xmm2
	pand	%xmm0, %xmm3
	pandn	%xmm4, %xmm2
	por	%xmm2, %xmm3
	movdqa	%xmm0, %xmm2
	pand	%xmm4, %xmm0
	pandn	%xmm15, %xmm2
	movdqa	%xmm0, %xmm4
	movaps	%xmm3, -192(%rbp)
	pshufd	$78, %xmm10, %xmm3
	por	%xmm2, %xmm4
	movdqa	%xmm10, %xmm2
	movdqa	%xmm3, %xmm1
	movdqa	-64(%rbp), %xmm15
	psubq	%xmm3, %xmm2
	pcmpgtd	%xmm10, %xmm1
	movdqa	%xmm2, %xmm0
	movdqa	%xmm10, %xmm2
	pcmpeqd	%xmm3, %xmm2
	pand	%xmm0, %xmm2
	por	%xmm1, %xmm2
	pshufd	$245, %xmm2, %xmm0
	punpckhqdq	%xmm0, %xmm0
	movdqa	%xmm0, %xmm2
	pand	%xmm3, %xmm0
	pshufd	$78, %xmm15, %xmm3
	pandn	%xmm10, %xmm2
	movdqa	%xmm0, %xmm1
	por	%xmm2, %xmm1
	movdqa	%xmm15, %xmm2
	pcmpeqd	%xmm3, %xmm2
	movaps	%xmm1, -112(%rbp)
	movdqa	%xmm15, %xmm1
	psubq	%xmm3, %xmm1
	pand	%xmm1, %xmm2
	movdqa	%xmm3, %xmm1
	pcmpgtd	%xmm15, %xmm1
	por	%xmm1, %xmm2
	pshufd	$245, %xmm2, %xmm0
	punpckhqdq	%xmm0, %xmm0
	movdqa	%xmm0, %xmm2
	pand	%xmm3, %xmm0
	pshufd	$78, %xmm9, %xmm3
	pandn	%xmm15, %xmm2
	movdqa	%xmm0, %xmm1
	por	%xmm2, %xmm1
	pshufd	$78, %xmm13, %xmm2
	movaps	%xmm1, -128(%rbp)
	movdqa	%xmm13, %xmm1
	movdqa	%xmm2, %xmm15
	psubq	%xmm2, %xmm1
	pcmpgtd	%xmm13, %xmm15
	movdqa	%xmm1, %xmm0
	movdqa	%xmm13, %xmm1
	pcmpeqd	%xmm2, %xmm1
	pand	%xmm0, %xmm1
	por	%xmm15, %xmm1
	pshufd	$245, %xmm1, %xmm0
	punpckhqdq	%xmm0, %xmm0
	movdqa	%xmm0, %xmm1
	pand	%xmm2, %xmm0
	pshufd	$78, %xmm14, %xmm2
	pandn	%xmm13, %xmm1
	movdqa	%xmm0, %xmm15
	movdqa	%xmm2, %xmm10
	por	%xmm1, %xmm15
	pcmpgtd	%xmm14, %xmm10
	movdqa	%xmm14, %xmm1
	psubq	%xmm2, %xmm1
	movdqa	%xmm1, %xmm0
	movdqa	%xmm14, %xmm1
	pcmpeqd	%xmm2, %xmm1
	pand	%xmm0, %xmm1
	por	%xmm10, %xmm1
	pshufd	$245, %xmm1, %xmm0
	punpckhqdq	%xmm0, %xmm0
	movdqa	%xmm0, %xmm1
	pand	%xmm2, %xmm0
	pshufd	$78, %xmm11, %xmm2
	pandn	%xmm14, %xmm1
	movdqa	%xmm0, %xmm10
	movdqa	%xmm2, %xmm14
	por	%xmm1, %xmm10
	pcmpgtd	%xmm11, %xmm14
	movdqa	%xmm11, %xmm1
	psubq	%xmm2, %xmm1
	movdqa	%xmm1, %xmm0
	movdqa	%xmm11, %xmm1
	pcmpeqd	%xmm2, %xmm1
	pand	%xmm0, %xmm1
	por	%xmm14, %xmm1
	pshufd	$245, %xmm1, %xmm0
	punpckhqdq	%xmm0, %xmm0
	movdqa	%xmm0, %xmm1
	pand	%xmm2, %xmm0
	pandn	%xmm11, %xmm1
	movdqa	%xmm0, %xmm2
	pshufd	$78, %xmm4, %xmm11
	por	%xmm1, %xmm2
	movdqa	%xmm12, %xmm1
	movaps	%xmm2, -64(%rbp)
	pshufd	$78, %xmm12, %xmm2
	movdqa	-160(%rbp), %xmm13
	psubq	%xmm2, %xmm1
	movdqa	%xmm2, %xmm14
	movdqa	%xmm1, %xmm0
	pcmpgtd	%xmm12, %xmm14
	movdqa	%xmm12, %xmm1
	pcmpeqd	%xmm2, %xmm1
	pand	%xmm0, %xmm1
	por	%xmm14, %xmm1
	pshufd	$245, %xmm1, %xmm0
	punpckhqdq	%xmm0, %xmm0
	movdqa	%xmm0, %xmm1
	pand	%xmm2, %xmm0
	pandn	%xmm12, %xmm1
	movdqa	%xmm0, %xmm2
	por	%xmm1, %xmm2
	movdqa	%xmm8, %xmm1
	movaps	%xmm2, -80(%rbp)
	pshufd	$78, %xmm8, %xmm2
	psubq	%xmm2, %xmm1
	movdqa	%xmm2, %xmm14
	movdqa	%xmm1, %xmm0
	pcmpgtd	%xmm8, %xmm14
	movdqa	%xmm8, %xmm1
	pcmpeqd	%xmm2, %xmm1
	pand	%xmm0, %xmm1
	por	%xmm14, %xmm1
	pshufd	$245, %xmm1, %xmm0
	punpckhqdq	%xmm0, %xmm0
	movdqa	%xmm0, %xmm1
	pand	%xmm2, %xmm0
	pandn	%xmm8, %xmm1
	movdqa	%xmm0, %xmm2
	por	%xmm1, %xmm2
	movdqa	%xmm7, %xmm1
	movaps	%xmm2, -96(%rbp)
	pshufd	$78, %xmm7, %xmm2
	psubq	%xmm2, %xmm1
	movdqa	%xmm2, %xmm14
	movdqa	%xmm1, %xmm0
	pcmpgtd	%xmm7, %xmm14
	movdqa	%xmm7, %xmm1
	pcmpeqd	%xmm2, %xmm1
	pand	%xmm0, %xmm1
	por	%xmm14, %xmm1
	pshufd	$245, %xmm1, %xmm0
	punpckhqdq	%xmm0, %xmm0
	movdqa	%xmm0, %xmm1
	pand	%xmm2, %xmm0
	pandn	%xmm7, %xmm1
	movdqa	-144(%rbp), %xmm7
	movdqa	%xmm0, %xmm14
	por	%xmm1, %xmm14
	pshufd	$78, %xmm7, %xmm2
	movdqa	%xmm7, %xmm1
	movdqa	%xmm7, %xmm0
	pcmpeqd	%xmm2, %xmm1
	movdqa	%xmm2, %xmm8
	psubq	%xmm2, %xmm0
	pcmpgtd	%xmm7, %xmm8
	pand	%xmm0, %xmm1
	por	%xmm8, %xmm1
	pshufd	$78, %xmm5, %xmm8
	pshufd	$245, %xmm1, %xmm0
	punpckhqdq	%xmm0, %xmm0
	movdqa	%xmm0, %xmm1
	pand	%xmm2, %xmm0
	movdqa	%xmm9, %xmm2
	pandn	%xmm7, %xmm1
	psubq	%xmm3, %xmm2
	pshufd	$78, %xmm6, %xmm7
	por	%xmm1, %xmm0
	movdqa	%xmm9, %xmm1
	pcmpeqd	%xmm3, %xmm1
	pand	%xmm2, %xmm1
	movdqa	%xmm3, %xmm2
	pcmpgtd	%xmm9, %xmm2
	por	%xmm2, %xmm1
	pshufd	$245, %xmm1, %xmm2
	punpckhqdq	%xmm2, %xmm2
	movdqa	%xmm2, %xmm1
	pand	%xmm3, %xmm2
	movdqa	%xmm6, %xmm3
	pandn	%xmm9, %xmm1
	pcmpeqd	%xmm7, %xmm3
	por	%xmm1, %xmm2
	movdqa	%xmm6, %xmm1
	psubq	%xmm7, %xmm1
	pand	%xmm1, %xmm3
	movdqa	%xmm7, %xmm1
	pcmpgtd	%xmm6, %xmm1
	por	%xmm1, %xmm3
	pshufd	$245, %xmm3, %xmm1
	punpckhqdq	%xmm1, %xmm1
	movdqa	%xmm1, %xmm3
	pandn	%xmm6, %xmm3
	movdqa	%xmm1, %xmm6
	movdqa	%xmm13, %xmm1
	pand	%xmm7, %xmm6
	movdqa	%xmm13, %xmm7
	por	%xmm3, %xmm6
	pshufd	$78, %xmm13, %xmm3
	pcmpeqd	%xmm3, %xmm1
	psubq	%xmm3, %xmm7
	pand	%xmm7, %xmm1
	movdqa	%xmm3, %xmm7
	pcmpgtd	%xmm13, %xmm7
	por	%xmm7, %xmm1
	pshufd	$245, %xmm1, %xmm7
	punpckhqdq	%xmm7, %xmm7
	movdqa	%xmm7, %xmm1
	pand	%xmm3, %xmm7
	movdqa	%xmm5, %xmm3
	pandn	%xmm13, %xmm1
	pcmpeqd	%xmm8, %xmm3
	movdqa	-176(%rbp), %xmm13
	por	%xmm1, %xmm7
	movdqa	%xmm5, %xmm1
	psubq	%xmm8, %xmm1
	pand	%xmm1, %xmm3
	movdqa	%xmm8, %xmm1
	pcmpgtd	%xmm5, %xmm1
	por	%xmm1, %xmm3
	pshufd	$245, %xmm3, %xmm1
	punpckhqdq	%xmm1, %xmm1
	movdqa	%xmm1, %xmm3
	pand	%xmm8, %xmm1
	movdqa	%xmm13, %xmm8
	pandn	%xmm5, %xmm3
	pshufd	$78, %xmm13, %xmm5
	por	%xmm3, %xmm1
	movdqa	%xmm13, %xmm3
	movdqa	%xmm5, %xmm9
	pcmpeqd	%xmm5, %xmm3
	pcmpgtd	%xmm13, %xmm9
	psubq	%xmm5, %xmm8
	pand	%xmm8, %xmm3
	por	%xmm9, %xmm3
	pshufd	$245, %xmm3, %xmm9
	punpckhqdq	%xmm9, %xmm9
	movdqa	%xmm9, %xmm3
	pand	%xmm5, %xmm9
	pandn	%xmm13, %xmm3
	movdqa	-192(%rbp), %xmm13
	por	%xmm3, %xmm9
	pshufd	$78, %xmm13, %xmm5
	movdqa	%xmm13, %xmm3
	movdqa	%xmm13, %xmm8
	pcmpeqd	%xmm5, %xmm3
	psubq	%xmm5, %xmm8
	pand	%xmm8, %xmm3
	movdqa	%xmm5, %xmm8
	pcmpgtd	%xmm13, %xmm8
	por	%xmm8, %xmm3
	pshufd	$245, %xmm3, %xmm8
	punpckhqdq	%xmm8, %xmm8
	movdqa	%xmm8, %xmm3
	pand	%xmm5, %xmm8
	movdqa	%xmm4, %xmm5
	pandn	%xmm13, %xmm3
	pcmpeqd	%xmm11, %xmm5
	por	%xmm3, %xmm8
	movdqa	%xmm4, %xmm3
	psubq	%xmm11, %xmm3
	pand	%xmm3, %xmm5
	movdqa	%xmm11, %xmm3
	pcmpgtd	%xmm4, %xmm3
	por	%xmm3, %xmm5
	pshufd	$245, %xmm5, %xmm3
	punpckhqdq	%xmm3, %xmm3
	movdqa	%xmm3, %xmm5
	pand	%xmm11, %xmm3
	pandn	%xmm4, %xmm5
	por	%xmm5, %xmm3
.L366:
	movdqa	-112(%rbp), %xmm4
	movq	-232(%rbp), %rdx
	movups	%xmm4, (%rdx)
	movdqa	-128(%rbp), %xmm4
	movups	%xmm4, (%r15)
	movdqa	-64(%rbp), %xmm4
	movups	%xmm15, (%r14)
	movups	%xmm10, 0(%r13)
	movups	%xmm4, (%r12)
	movdqa	-80(%rbp), %xmm4
	movups	%xmm4, (%rbx)
	movdqa	-96(%rbp), %xmm4
	movq	-224(%rbp), %rbx
	movups	%xmm4, (%r11)
	movups	%xmm14, (%r10)
	movups	%xmm0, (%r9)
	movups	%xmm2, (%r8)
	movups	%xmm6, (%rdi)
	movups	%xmm7, (%rsi)
	movups	%xmm1, (%rcx)
	movq	-216(%rbp), %rcx
	movups	%xmm9, (%rcx)
	movups	%xmm8, (%rbx)
	movups	%xmm3, (%rax)
	addq	$224, %rsp
	popq	%rbx
	popq	%r12
	popq	%r13
	popq	%r14
	popq	%r15
	popq	%rbp
	.cfi_remember_state
	.cfi_def_cfa 7, 8
	ret
	.p2align 4,,10
	.p2align 3
.L368:
	.cfi_restore_state
	movdqa	-144(%rbp), %xmm3
	movdqa	-160(%rbp), %xmm8
	movdqa	-176(%rbp), %xmm9
	jmp	.L366
	.cfi_endproc
.LFE18796:
	.size	_ZN3hwy7N_SSSE36detail14SortingNetworkINS1_12SharedTraitsINS1_10TraitsLaneINS1_14OrderAscendingIlEEEEEElEEvT_PT0_m.isra.0, .-_ZN3hwy7N_SSSE36detail14SortingNetworkINS1_12SharedTraitsINS1_10TraitsLaneINS1_14OrderAscendingIlEEEEEElEEvT_PT0_m.isra.0
	.section	.text._ZN3hwy6N_SSE26detail7RecurseINS0_4SimdIlLm2ELi0EEENS1_12SharedTraitsINS1_10TraitsLaneINS1_14OrderAscendingIlEEEEEElEEvT_T0_PT1_SE_mSE_Pmm.isra.0,"ax",@progbits
	.p2align 4
	.type	_ZN3hwy6N_SSE26detail7RecurseINS0_4SimdIlLm2ELi0EEENS1_12SharedTraitsINS1_10TraitsLaneINS1_14OrderAscendingIlEEEEEElEEvT_T0_PT1_SE_mSE_Pmm.isra.0, @function
_ZN3hwy6N_SSE26detail7RecurseINS0_4SimdIlLm2ELi0EEENS1_12SharedTraitsINS1_10TraitsLaneINS1_14OrderAscendingIlEEEEEElEEvT_T0_PT1_SE_mSE_Pmm.isra.0:
.LFB18797:
	.cfi_startproc
	pushq	%rbp
	.cfi_def_cfa_offset 16
	.cfi_offset 6, -16
	movq	%rsp, %rbp
	.cfi_def_cfa_register 6
	pushq	%r15
	.cfi_offset 15, -24
	movq	%rcx, %r15
	pushq	%r14
	pushq	%r13
	pushq	%r12
	pushq	%rbx
	subq	$2952, %rsp
	.cfi_offset 14, -32
	.cfi_offset 13, -40
	.cfi_offset 12, -48
	.cfi_offset 3, -56
	movq	%rdi, -2648(%rbp)
	movq	%rsi, -2808(%rbp)
	movq	%rdx, -2760(%rbp)
	movq	%r8, -2736(%rbp)
	movq	%r9, -2768(%rbp)
	cmpq	$32, %rdx
	jbe	.L594
	movq	%rdi, %r12
	movq	%rdi, %r14
	shrq	$3, %r12
	movq	%r12, %rax
	andl	$7, %eax
	jne	.L595
	movq	%rdx, %r11
	movq	%rdi, %r13
	movq	%r8, %rax
.L381:
	movq	8(%rax), %rdx
	movq	16(%rax), %r9
	movq	%rdx, %rcx
	leaq	1(%r9), %rdi
	movq	%rdx, %rsi
	xorq	(%rax), %rdi
	rolq	$24, %rcx
	shrq	$11, %rsi
	movq	%rcx, %rax
	leaq	(%rdx,%rdx,8), %rcx
	leaq	2(%r9), %rdx
	addq	%rdi, %rax
	xorq	%rsi, %rcx
	movq	%rax, %rsi
	xorq	%rdx, %rcx
	leaq	(%rax,%rax,8), %rdx
	movq	%rax, %r8
	rolq	$24, %rsi
	shrq	$11, %r8
	leaq	3(%r9), %rax
	addq	%rcx, %rsi
	xorq	%r8, %rdx
	movq	%rsi, %r10
	movq	%rsi, %r8
	xorq	%rax, %rdx
	shrq	$11, %r8
	rolq	$24, %r10
	leaq	(%rsi,%rsi,8), %rax
	leaq	4(%r9), %rsi
	addq	%rdx, %r10
	xorq	%r8, %rax
	addq	$5, %r9
	xorq	%rsi, %rax
	movq	%r10, %r8
	movq	%r10, %rsi
	shrq	$11, %rsi
	rolq	$24, %r8
	addq	%rax, %r8
	movq	%rsi, %rbx
	leaq	(%r10,%r10,8), %rsi
	xorq	%rbx, %rsi
	movq	%r8, %rbx
	leaq	(%r8,%r8,8), %r10
	rolq	$24, %r8
	xorq	%r9, %rsi
	shrq	$11, %rbx
	xorq	%rbx, %r10
	addq	%rsi, %r8
	movq	-2736(%rbp), %rbx
	movl	%esi, %esi
	movq	%r10, %xmm0
	movq	%r8, %xmm6
	movl	%ecx, %r10d
	movabsq	$34359738359, %r8
	punpcklqdq	%xmm6, %xmm0
	movq	%r9, 16(%rbx)
	movl	%edx, %r9d
	movups	%xmm0, (%rbx)
	movq	%r11, %rbx
	shrq	$3, %rbx
	cmpq	%r8, %r11
	movl	$4294967295, %r8d
	movl	%edi, %r11d
	cmova	%r8, %rbx
	shrq	$32, %rdi
	movl	%eax, %r8d
	shrq	$32, %rcx
	shrq	$32, %rdx
	imulq	%rbx, %r11
	shrq	$32, %rax
	imulq	%rbx, %rdi
	imulq	%rbx, %r10
	imulq	%rbx, %rcx
	shrq	$32, %r11
	imulq	%rbx, %r9
	shrq	$32, %rdi
	salq	$6, %r11
	imulq	%rbx, %rdx
	shrq	$32, %r10
	salq	$6, %rdi
	addq	%r13, %r11
	imulq	%rbx, %r8
	shrq	$32, %rcx
	salq	$6, %r10
	addq	%r13, %rdi
	shrq	$32, %r9
	salq	$6, %rcx
	addq	%r13, %r10
	shrq	$32, %rdx
	salq	$6, %r9
	addq	%r13, %rcx
	shrq	$32, %r8
	salq	$6, %rdx
	addq	%r13, %r9
	salq	$6, %r8
	addq	%r13, %rdx
	addq	%r13, %r8
	imulq	%rbx, %rax
	imulq	%rbx, %rsi
	xorl	%ebx, %ebx
	shrq	$32, %rax
	shrq	$32, %rsi
	salq	$6, %rax
	salq	$6, %rsi
	addq	%r13, %rax
	addq	%r13, %rsi
.L383:
	movdqa	(%r10,%rbx,8), %xmm2
	movdqa	(%r11,%rbx,8), %xmm4
	movdqa	(%rdi,%rbx,8), %xmm0
	movdqa	%xmm2, %xmm3
	movdqa	%xmm4, %xmm1
	pcmpeqd	%xmm4, %xmm3
	psubq	%xmm2, %xmm1
	pand	%xmm3, %xmm1
	movdqa	%xmm2, %xmm3
	pcmpgtd	%xmm4, %xmm3
	por	%xmm3, %xmm1
	movdqa	%xmm4, %xmm3
	pshufd	$245, %xmm1, %xmm1
	movdqa	%xmm1, %xmm5
	pand	%xmm1, %xmm3
	pandn	%xmm2, %xmm5
	pand	%xmm1, %xmm2
	por	%xmm5, %xmm3
	movdqa	%xmm1, %xmm5
	pandn	%xmm4, %xmm5
	movdqa	%xmm0, %xmm4
	movdqa	%xmm3, %xmm1
	pcmpeqd	%xmm3, %xmm4
	psubq	%xmm0, %xmm1
	por	%xmm5, %xmm2
	pand	%xmm4, %xmm1
	movdqa	%xmm0, %xmm4
	pcmpgtd	%xmm3, %xmm4
	por	%xmm4, %xmm1
	pshufd	$245, %xmm1, %xmm1
	movdqa	%xmm1, %xmm4
	pand	%xmm1, %xmm0
	pandn	%xmm3, %xmm4
	movdqa	%xmm2, %xmm3
	por	%xmm4, %xmm0
	movdqa	(%rcx,%rbx,8), %xmm4
	pcmpeqd	%xmm0, %xmm3
	movdqa	%xmm0, %xmm1
	psubq	%xmm2, %xmm1
	pand	%xmm3, %xmm1
	movdqa	%xmm2, %xmm3
	pcmpgtd	%xmm0, %xmm3
	por	%xmm3, %xmm1
	pshufd	$245, %xmm1, %xmm1
	movdqa	%xmm1, %xmm3
	pand	%xmm1, %xmm0
	movdqa	%xmm4, %xmm1
	pandn	%xmm2, %xmm3
	movdqa	(%rdx,%rbx,8), %xmm2
	por	%xmm3, %xmm0
	movdqa	%xmm2, %xmm3
	psubq	%xmm2, %xmm1
	movaps	%xmm0, (%r15,%rbx,8)
	movdqa	(%r9,%rbx,8), %xmm0
	pcmpeqd	%xmm4, %xmm3
	pand	%xmm3, %xmm1
	movdqa	%xmm2, %xmm3
	pcmpgtd	%xmm4, %xmm3
	por	%xmm3, %xmm1
	movdqa	%xmm4, %xmm3
	pshufd	$245, %xmm1, %xmm1
	movdqa	%xmm1, %xmm5
	pand	%xmm1, %xmm3
	pandn	%xmm2, %xmm5
	pand	%xmm1, %xmm2
	por	%xmm5, %xmm3
	movdqa	%xmm1, %xmm5
	pandn	%xmm4, %xmm5
	movdqa	%xmm0, %xmm4
	movdqa	%xmm3, %xmm1
	pcmpeqd	%xmm3, %xmm4
	psubq	%xmm0, %xmm1
	por	%xmm5, %xmm2
	pand	%xmm4, %xmm1
	movdqa	%xmm0, %xmm4
	pcmpgtd	%xmm3, %xmm4
	por	%xmm4, %xmm1
	pshufd	$245, %xmm1, %xmm1
	movdqa	%xmm1, %xmm4
	pand	%xmm1, %xmm0
	pandn	%xmm3, %xmm4
	movdqa	%xmm2, %xmm3
	por	%xmm4, %xmm0
	movdqa	(%r8,%rbx,8), %xmm4
	pcmpeqd	%xmm0, %xmm3
	movdqa	%xmm0, %xmm1
	psubq	%xmm2, %xmm1
	pand	%xmm3, %xmm1
	movdqa	%xmm2, %xmm3
	pcmpgtd	%xmm0, %xmm3
	por	%xmm3, %xmm1
	pshufd	$245, %xmm1, %xmm1
	movdqa	%xmm1, %xmm3
	pand	%xmm1, %xmm0
	movdqa	%xmm4, %xmm1
	pandn	%xmm2, %xmm3
	movdqa	(%rsi,%rbx,8), %xmm2
	por	%xmm3, %xmm0
	movdqa	%xmm2, %xmm3
	psubq	%xmm2, %xmm1
	movaps	%xmm0, 64(%r15,%rbx,8)
	movdqa	(%rax,%rbx,8), %xmm0
	pcmpeqd	%xmm4, %xmm3
	pand	%xmm3, %xmm1
	movdqa	%xmm2, %xmm3
	pcmpgtd	%xmm4, %xmm3
	por	%xmm3, %xmm1
	movdqa	%xmm4, %xmm3
	pshufd	$245, %xmm1, %xmm1
	movdqa	%xmm1, %xmm5
	pand	%xmm1, %xmm3
	pandn	%xmm2, %xmm5
	pand	%xmm1, %xmm2
	por	%xmm5, %xmm3
	movdqa	%xmm1, %xmm5
	pandn	%xmm4, %xmm5
	movdqa	%xmm0, %xmm4
	movdqa	%xmm3, %xmm1
	pcmpeqd	%xmm3, %xmm4
	psubq	%xmm0, %xmm1
	por	%xmm5, %xmm2
	pand	%xmm4, %xmm1
	movdqa	%xmm0, %xmm4
	pcmpgtd	%xmm3, %xmm4
	por	%xmm4, %xmm1
	pshufd	$245, %xmm1, %xmm1
	movdqa	%xmm1, %xmm4
	pand	%xmm1, %xmm0
	pandn	%xmm3, %xmm4
	movdqa	%xmm2, %xmm3
	por	%xmm4, %xmm0
	pcmpeqd	%xmm0, %xmm3
	movdqa	%xmm0, %xmm1
	psubq	%xmm2, %xmm1
	pand	%xmm3, %xmm1
	movdqa	%xmm2, %xmm3
	pcmpgtd	%xmm0, %xmm3
	por	%xmm3, %xmm1
	pshufd	$245, %xmm1, %xmm1
	movdqa	%xmm1, %xmm3
	pand	%xmm1, %xmm0
	pandn	%xmm2, %xmm3
	por	%xmm3, %xmm0
	movaps	%xmm0, 128(%r15,%rbx,8)
	addq	$2, %rbx
	cmpq	$8, %rbx
	jne	.L383
	movq	(%r15), %xmm2
	movdqa	16(%r15), %xmm0
	leaq	192(%r15), %r13
	movdqa	(%r15), %xmm1
	punpcklqdq	%xmm2, %xmm2
	pxor	%xmm2, %xmm1
	pxor	%xmm2, %xmm0
	por	%xmm1, %xmm0
	movdqa	32(%r15), %xmm1
	pxor	%xmm2, %xmm1
	por	%xmm1, %xmm0
	movdqa	48(%r15), %xmm1
	pxor	%xmm2, %xmm1
	por	%xmm1, %xmm0
	movdqa	64(%r15), %xmm1
	pxor	%xmm2, %xmm1
	por	%xmm1, %xmm0
	movdqa	80(%r15), %xmm1
	pxor	%xmm2, %xmm1
	por	%xmm1, %xmm0
	movdqa	96(%r15), %xmm1
	pxor	%xmm2, %xmm1
	por	%xmm1, %xmm0
	movdqa	112(%r15), %xmm1
	pxor	%xmm2, %xmm1
	por	%xmm1, %xmm0
	movdqa	128(%r15), %xmm1
	pxor	%xmm2, %xmm1
	por	%xmm1, %xmm0
	movdqa	144(%r15), %xmm1
	pxor	%xmm2, %xmm1
	por	%xmm1, %xmm0
	movdqa	160(%r15), %xmm1
	pxor	%xmm2, %xmm1
	por	%xmm1, %xmm0
	movdqa	176(%r15), %xmm1
	pxor	%xmm2, %xmm1
	por	%xmm1, %xmm0
	pxor	%xmm1, %xmm1
	pcmpeqd	%xmm1, %xmm0
	pshufd	$177, %xmm0, %xmm1
	pand	%xmm1, %xmm0
	movmskpd	%xmm0, %eax
	cmpl	$3, %eax
	je	.L384
	movdqa	.LC4(%rip), %xmm0
	movl	$2, %esi
	movq	%r15, %rdi
	movups	%xmm0, 192(%r15)
	movups	%xmm0, 208(%r15)
	movups	%xmm0, 224(%r15)
	movups	%xmm0, 240(%r15)
	movups	%xmm0, 256(%r15)
	call	_ZN3hwy6N_SSE26detail14SortingNetworkINS1_12SharedTraitsINS1_10TraitsLaneINS1_14OrderAscendingIlEEEEEElEEvT_PT0_m.isra.0
	movq	(%r15), %xmm2
	pcmpeqd	%xmm0, %xmm0
	movq	184(%r15), %xmm1
	punpcklqdq	%xmm1, %xmm1
	punpcklqdq	%xmm2, %xmm2
	paddq	%xmm1, %xmm0
	pcmpeqd	%xmm2, %xmm0
	pshufd	$177, %xmm0, %xmm3
	pand	%xmm3, %xmm0
	movmskpd	%xmm0, %eax
	cmpl	$3, %eax
	jne	.L386
	movq	-2760(%rbp), %rsi
	leaq	-64(%rbp), %rdx
	movq	%r13, %rcx
	movdqa	%xmm2, %xmm0
	movq	-2648(%rbp), %rdi
	call	_ZN3hwy6N_SSE26detail22MaybePartitionTwoValueINS0_4SimdIlLm2ELi0EEENS1_12SharedTraitsINS1_10TraitsLaneINS1_14OrderAscendingIlEEEEEElEEbT_T0_PT1_mDTcl4ZerocvSB__EEESF_RSF_SE_.isra.0
	testb	%al, %al
	jne	.L369
.L386:
	movq	96(%r15), %rax
	cmpq	%rax, 88(%r15)
	jne	.L482
	cmpq	80(%r15), %rax
	jne	.L425
	cmpq	72(%r15), %rax
	jne	.L483
	cmpq	64(%r15), %rax
	jne	.L484
	cmpq	56(%r15), %rax
	jne	.L485
	cmpq	48(%r15), %rax
	jne	.L486
	cmpq	40(%r15), %rax
	jne	.L487
	cmpq	32(%r15), %rax
	jne	.L488
	cmpq	24(%r15), %rax
	jne	.L489
	cmpq	16(%r15), %rax
	jne	.L490
	cmpq	8(%r15), %rax
	jne	.L491
	xorl	%ebx, %ebx
	movl	$1, %edx
	cmpq	%rax, (%r15)
	jne	.L428
.L427:
	movq	%rax, %xmm2
	punpcklqdq	%xmm2, %xmm2
.L593:
	movl	$1, -2812(%rbp)
.L423:
	cmpq	$0, -2768(%rbp)
	je	.L596
	movq	-2760(%rbp), %rax
	movq	-2648(%rbp), %rsi
	movaps	%xmm2, -2624(%rbp)
	subq	$2, %rax
	movdqu	(%rsi,%rax,8), %xmm6
	movq	%rax, %rcx
	movq	%rax, -2672(%rbp)
	andl	$7, %ecx
	movq	%rcx, -2688(%rbp)
	movaps	%xmm6, -2800(%rbp)
	andl	$6, %eax
	je	.L492
	movdqu	(%rsi), %xmm4
	movdqa	%xmm2, %xmm1
	movaps	%xmm2, -2848(%rbp)
	movdqa	%xmm4, %xmm0
	psubq	%xmm4, %xmm1
	movaps	%xmm4, -2640(%rbp)
	pcmpeqd	%xmm2, %xmm0
	pand	%xmm0, %xmm1
	movdqa	%xmm4, %xmm0
	pcmpgtd	%xmm2, %xmm0
	por	%xmm0, %xmm1
	pcmpeqd	%xmm0, %xmm0
	pshufd	$245, %xmm1, %xmm1
	pxor	%xmm1, %xmm0
	movaps	%xmm1, -2832(%rbp)
	movmskpd	%xmm0, %ebx
	movq	%rbx, %rdi
	salq	$4, %rbx
	call	__popcountdi2@PLT
	leaq	_ZZN3hwy6N_SSE26detail18IndicesFromBits128INS0_4SimdIlLm2ELi0EEELPv0EEEDTcl4ZerocvT__EEES6_mE10u8_indices(%rip), %rcx
	movdqa	-2640(%rbp), %xmm4
	movdqa	(%rcx,%rbx), %xmm0
	movq	%rcx, -2728(%rbp)
	cltq
	movq	%rax, -2704(%rbp)
	movaps	%xmm0, -336(%rbp)
	movzbl	-328(%rbp), %edx
	movd	%xmm0, %r9d
	movaps	%xmm0, -352(%rbp)
	andl	$15, %r9d
	movq	%rdx, %rcx
	movzbl	-343(%rbp), %edx
	movaps	%xmm0, -320(%rbp)
	movzbl	-313(%rbp), %eax
	movaps	%xmm0, -368(%rbp)
	andl	$15, %ecx
	movq	%rdx, %rdi
	movzbl	-358(%rbp), %edx
	movaps	%xmm0, -304(%rbp)
	movzbl	-298(%rbp), %r14d
	andl	$15, %edi
	andl	$15, %eax
	movaps	%xmm0, -224(%rbp)
	movzbl	-223(%rbp), %r10d
	andl	$15, %edx
	movaps	%xmm0, -240(%rbp)
	andl	$15, %r14d
	movzbl	-238(%rbp), %r11d
	movaps	%xmm0, -256(%rbp)
	movzbl	-253(%rbp), %ebx
	andl	$15, %r10d
	movaps	%xmm0, -272(%rbp)
	movzbl	-268(%rbp), %r12d
	andl	$15, %r11d
	movaps	%xmm0, -288(%rbp)
	movzbl	-283(%rbp), %r13d
	andl	$15, %ebx
	movaps	%xmm0, -384(%rbp)
	andl	$15, %r12d
	movq	%rcx, -2640(%rbp)
	andl	$15, %r13d
	movq	%rdi, -2720(%rbp)
	movq	%rdx, -2656(%rbp)
	movzbl	-373(%rbp), %edx
	movaps	%xmm4, -208(%rbp)
	movaps	%xmm0, -400(%rbp)
	movzbl	-388(%rbp), %ecx
	andl	$15, %edx
	movdqa	.LC1(%rip), %xmm6
	movq	-2704(%rbp), %xmm3
	movaps	%xmm0, -416(%rbp)
	movzbl	-403(%rbp), %esi
	movaps	%xmm0, -432(%rbp)
	andl	$15, %ecx
	movdqa	%xmm6, %xmm5
	movzbl	-418(%rbp), %edi
	movaps	%xmm0, -448(%rbp)
	movzbl	-208(%rbp,%rax), %eax
	andl	$15, %esi
	punpcklqdq	%xmm3, %xmm3
	movzbl	-208(%rbp,%r14), %r14d
	andl	$15, %edi
	movzbl	-208(%rbp,%r13), %r13d
	movaps	%xmm6, -2752(%rbp)
	salq	$8, %rax
	movzbl	-208(%rbp,%rbx), %ebx
	movzbl	-208(%rbp,%r12), %r12d
	pcmpeqd	%xmm3, %xmm5
	orq	%r14, %rax
	movzbl	-433(%rbp), %r8d
	movzbl	-208(%rbp,%r11), %r11d
	salq	$8, %rax
	movzbl	-208(%rbp,%rdi), %edi
	movzbl	-208(%rbp,%r10), %r10d
	orq	%r13, %rax
	andl	$15, %r8d
	movzbl	-208(%rbp,%rsi), %esi
	movzbl	-208(%rbp,%rcx), %ecx
	salq	$8, %rax
	movzbl	-208(%rbp,%r8), %r8d
	movzbl	-208(%rbp,%rdx), %edx
	movzbl	-208(%rbp,%r9), %r9d
	orq	%r12, %rax
	salq	$8, %rax
	salq	$8, %r8
	orq	%rbx, %rax
	salq	$8, %rax
	orq	%r11, %rax
	salq	$8, %rax
	orq	%r10, %rax
	salq	$8, %rax
	orq	%rdi, %r8
	movq	-2720(%rbp), %rdi
	salq	$8, %r8
	orq	%r9, %rax
	orq	%rsi, %r8
	salq	$8, %r8
	orq	%rcx, %r8
	movq	-2640(%rbp), %rcx
	movq	%rax, -2640(%rbp)
	salq	$8, %r8
	orq	%rdx, %r8
	movq	-2656(%rbp), %rdx
	salq	$8, %r8
	movzbl	-208(%rbp,%rdx), %edx
	orq	%rdx, %r8
	movzbl	-208(%rbp,%rdi), %edx
	salq	$8, %r8
	orq	%rdx, %r8
	movzbl	-208(%rbp,%rcx), %edx
	salq	$8, %r8
	orq	%rdx, %r8
	movq	%r8, -2632(%rbp)
	movdqa	.LC0(%rip), %xmm7
	movdqa	-2832(%rbp), %xmm1
	movdqa	-2848(%rbp), %xmm2
	movdqa	%xmm7, %xmm0
	movaps	%xmm7, -2784(%rbp)
	psubq	%xmm3, %xmm0
	pcmpgtd	%xmm6, %xmm3
	pand	%xmm5, %xmm0
	por	%xmm3, %xmm0
	pshufd	$245, %xmm0, %xmm0
	movq	%xmm0, %rax
	testq	%rax, %rax
	je	.L433
	movq	-2648(%rbp), %rsi
	movdqa	-2640(%rbp), %xmm6
	movq	%xmm6, (%rsi)
.L433:
	movhlps	%xmm0, %xmm6
	movq	%xmm6, %rax
	testq	%rax, %rax
	je	.L434
	movq	-2648(%rbp), %rax
	movdqa	-2640(%rbp), %xmm6
	movhps	%xmm6, 8(%rax)
.L434:
	movq	-2648(%rbp), %rax
	movq	-2704(%rbp), %rbx
	movmskpd	%xmm1, %r12d
	movaps	%xmm4, -2720(%rbp)
	movq	%r12, %rdi
	movaps	%xmm2, -2848(%rbp)
	salq	$4, %r12
	leaq	(%rax,%rbx,8), %rbx
	call	__popcountdi2@PLT
	movdqa	-2720(%rbp), %xmm4
	movslq	%eax, %rcx
	movq	%rcx, -2640(%rbp)
	movq	-2728(%rbp), %rcx
	movaps	%xmm4, -192(%rbp)
	movdqa	(%rcx,%r12), %xmm0
	movaps	%xmm0, -576(%rbp)
	movzbl	-568(%rbp), %edx
	movd	%xmm0, %r9d
	movaps	%xmm0, -464(%rbp)
	movzbl	-463(%rbp), %eax
	andl	$15, %r9d
	movq	%rdx, %rcx
	movaps	%xmm0, -592(%rbp)
	movzbl	-583(%rbp), %edx
	andl	$15, %eax
	movaps	%xmm0, -608(%rbp)
	andl	$15, %ecx
	movq	%rdx, %rsi
	movzbl	-598(%rbp), %edx
	movq	%rax, -2704(%rbp)
	movaps	%xmm0, -560(%rbp)
	movzbl	-553(%rbp), %eax
	andl	$15, %esi
	movaps	%xmm0, -544(%rbp)
	movq	%rdx, %rdi
	movzbl	-538(%rbp), %r14d
	andl	$15, %edi
	andl	$15, %eax
	movq	%rcx, -2720(%rbp)
	movq	%rsi, -2656(%rbp)
	andl	$15, %r14d
	movq	%rdi, -2832(%rbp)
	movaps	%xmm0, -480(%rbp)
	movzbl	-478(%rbp), %r10d
	movaps	%xmm0, -496(%rbp)
	movzbl	-493(%rbp), %r11d
	movaps	%xmm0, -512(%rbp)
	movzbl	-508(%rbp), %r12d
	andl	$15, %r10d
	movaps	%xmm0, -528(%rbp)
	movzbl	-523(%rbp), %r13d
	andl	$15, %r11d
	movaps	%xmm0, -624(%rbp)
	andl	$15, %r12d
	movzbl	-613(%rbp), %edx
	movaps	%xmm0, -640(%rbp)
	andl	$15, %r13d
	movzbl	-628(%rbp), %ecx
	movaps	%xmm0, -656(%rbp)
	movzbl	-643(%rbp), %esi
	andl	$15, %edx
	movaps	%xmm0, -672(%rbp)
	movzbl	-658(%rbp), %edi
	andl	$15, %ecx
	movaps	%xmm0, -688(%rbp)
	movzbl	-192(%rbp,%rax), %eax
	movzbl	-192(%rbp,%r14), %r14d
	andl	$15, %esi
	movzbl	-192(%rbp,%r13), %r13d
	movzbl	-673(%rbp), %r8d
	andl	$15, %edi
	salq	$8, %rax
	movzbl	-192(%rbp,%r12), %r12d
	movzbl	-192(%rbp,%r11), %r11d
	orq	%r14, %rax
	andl	$15, %r8d
	movzbl	-192(%rbp,%r10), %r10d
	movzbl	-192(%rbp,%rdi), %edi
	salq	$8, %rax
	movzbl	-192(%rbp,%rsi), %esi
	movzbl	-192(%rbp,%r8), %r8d
	orq	%r13, %rax
	movzbl	-192(%rbp,%rcx), %ecx
	movzbl	-192(%rbp,%rdx), %edx
	salq	$8, %rax
	salq	$8, %r8
	movzbl	-192(%rbp,%r9), %r9d
	orq	%r12, %rax
	salq	$8, %rax
	orq	%r11, %rax
	movq	-2704(%rbp), %r11
	salq	$8, %rax
	orq	%r10, %rax
	movzbl	-192(%rbp,%r11), %r10d
	salq	$8, %rax
	orq	%r10, %rax
	salq	$8, %rax
	orq	%rdi, %r8
	movq	-2832(%rbp), %rdi
	salq	$8, %r8
	orq	%r9, %rax
	orq	%rsi, %r8
	movq	-2656(%rbp), %rsi
	movq	%rax, -2704(%rbp)
	salq	$8, %r8
	orq	%rcx, %r8
	movq	-2720(%rbp), %rcx
	salq	$8, %r8
	orq	%rdx, %r8
	movzbl	-192(%rbp,%rdi), %edx
	salq	$8, %r8
	orq	%rdx, %r8
	movzbl	-192(%rbp,%rsi), %edx
	salq	$8, %r8
	orq	%rdx, %r8
	movzbl	-192(%rbp,%rcx), %edx
	salq	$8, %r8
	orq	%rdx, %r8
	movq	%r8, -2696(%rbp)
	movdqa	-2704(%rbp), %xmm6
	testb	$4, -2672(%rbp)
	movdqa	-2848(%rbp), %xmm2
	movups	%xmm6, (%r15)
	je	.L435
	movq	-2648(%rbp), %rax
	movdqa	-2624(%rbp), %xmm6
	movdqa	%xmm2, %xmm1
	movaps	%xmm2, -2880(%rbp)
	movdqu	16(%rax), %xmm3
	movdqa	%xmm6, %xmm0
	pcmpeqd	%xmm3, %xmm0
	psubq	%xmm3, %xmm1
	movaps	%xmm3, -2704(%rbp)
	pand	%xmm0, %xmm1
	movdqa	%xmm3, %xmm0
	pcmpgtd	%xmm6, %xmm0
	por	%xmm0, %xmm1
	pcmpeqd	%xmm0, %xmm0
	pshufd	$245, %xmm1, %xmm1
	pxor	%xmm1, %xmm0
	movaps	%xmm1, -2864(%rbp)
	movmskpd	%xmm0, %r12d
	movq	%r12, %rdi
	salq	$4, %r12
	call	__popcountdi2@PLT
	movq	-2728(%rbp), %rcx
	movdqa	-2704(%rbp), %xmm3
	cltq
	movdqa	(%rcx,%r12), %xmm0
	movq	%rax, -2720(%rbp)
	movaps	%xmm3, -176(%rbp)
	movaps	%xmm0, -816(%rbp)
	movzbl	-808(%rbp), %edx
	movd	%xmm0, %r9d
	movaps	%xmm0, -704(%rbp)
	movzbl	-703(%rbp), %eax
	andl	$15, %r9d
	movaps	%xmm0, -832(%rbp)
	movq	%rdx, %rdi
	movzbl	-823(%rbp), %edx
	movaps	%xmm0, -800(%rbp)
	movq	%rax, %rcx
	andl	$15, %edi
	movzbl	-793(%rbp), %eax
	movaps	%xmm0, -848(%rbp)
	movq	%rdx, %rsi
	movzbl	-838(%rbp), %edx
	andl	$15, %ecx
	movaps	%xmm0, -784(%rbp)
	andl	$15, %esi
	andl	$15, %eax
	movzbl	-778(%rbp), %r14d
	andl	$15, %edx
	movaps	%xmm0, -720(%rbp)
	movzbl	-718(%rbp), %r10d
	movaps	%xmm0, -736(%rbp)
	andl	$15, %r14d
	movzbl	-733(%rbp), %r11d
	movaps	%xmm0, -752(%rbp)
	movzbl	-748(%rbp), %r12d
	andl	$15, %r10d
	movaps	%xmm0, -768(%rbp)
	movzbl	-763(%rbp), %r13d
	andl	$15, %r11d
	movq	%rcx, -2704(%rbp)
	andl	$15, %r12d
	movq	%rdi, -2656(%rbp)
	andl	$15, %r13d
	movq	%rsi, -2832(%rbp)
	movq	%rdx, -2848(%rbp)
	movaps	%xmm0, -864(%rbp)
	movzbl	-853(%rbp), %edx
	movaps	%xmm0, -880(%rbp)
	movzbl	-868(%rbp), %ecx
	movaps	%xmm0, -896(%rbp)
	movzbl	-883(%rbp), %esi
	andl	$15, %edx
	movaps	%xmm0, -912(%rbp)
	movzbl	-898(%rbp), %edi
	andl	$15, %ecx
	movaps	%xmm0, -928(%rbp)
	movzbl	-176(%rbp,%rax), %eax
	movzbl	-176(%rbp,%r14), %r14d
	andl	$15, %esi
	movzbl	-176(%rbp,%r13), %r13d
	movzbl	-913(%rbp), %r8d
	andl	$15, %edi
	salq	$8, %rax
	movzbl	-176(%rbp,%r12), %r12d
	movzbl	-176(%rbp,%r11), %r11d
	orq	%r14, %rax
	andl	$15, %r8d
	movzbl	-176(%rbp,%r10), %r10d
	movzbl	-176(%rbp,%rdi), %edi
	salq	$8, %rax
	movzbl	-176(%rbp,%rsi), %esi
	movzbl	-176(%rbp,%r8), %r8d
	orq	%r13, %rax
	movzbl	-176(%rbp,%rcx), %ecx
	movzbl	-176(%rbp,%rdx), %edx
	salq	$8, %rax
	salq	$8, %r8
	movzbl	-176(%rbp,%r9), %r9d
	orq	%r12, %rax
	salq	$8, %rax
	orq	%r11, %rax
	movq	-2704(%rbp), %r11
	salq	$8, %rax
	orq	%r10, %rax
	movzbl	-176(%rbp,%r11), %r10d
	salq	$8, %rax
	orq	%r10, %rax
	salq	$8, %rax
	orq	%rdi, %r8
	movq	-2656(%rbp), %rdi
	salq	$8, %r8
	orq	%r9, %rax
	orq	%rsi, %r8
	movq	-2832(%rbp), %rsi
	movq	%rax, -2704(%rbp)
	salq	$8, %r8
	orq	%rcx, %r8
	salq	$8, %r8
	orq	%rdx, %r8
	movq	-2848(%rbp), %rdx
	salq	$8, %r8
	movzbl	-176(%rbp,%rdx), %edx
	orq	%rdx, %r8
	movzbl	-176(%rbp,%rsi), %edx
	salq	$8, %r8
	orq	%rdx, %r8
	movzbl	-176(%rbp,%rdi), %edx
	salq	$8, %r8
	orq	%rdx, %r8
	movq	%r8, -2696(%rbp)
	movdqa	-2752(%rbp), %xmm6
	movdqa	-2784(%rbp), %xmm0
	movdqa	-2864(%rbp), %xmm1
	movq	-2720(%rbp), %xmm4
	movdqa	%xmm6, %xmm5
	movdqa	-2880(%rbp), %xmm2
	punpcklqdq	%xmm4, %xmm4
	pcmpeqd	%xmm4, %xmm5
	psubq	%xmm4, %xmm0
	pcmpgtd	%xmm6, %xmm4
	pand	%xmm5, %xmm0
	por	%xmm4, %xmm0
	pshufd	$245, %xmm0, %xmm0
	movq	%xmm0, %rax
	testq	%rax, %rax
	je	.L436
	movdqa	-2704(%rbp), %xmm6
	movq	%xmm6, (%rbx)
.L436:
	movhlps	%xmm0, %xmm6
	movq	%xmm6, %rax
	testq	%rax, %rax
	je	.L437
	movdqa	-2704(%rbp), %xmm6
	movhps	%xmm6, 8(%rbx)
.L437:
	movq	-2720(%rbp), %rax
	movmskpd	%xmm1, %r12d
	movaps	%xmm3, -2704(%rbp)
	movq	%r12, %rdi
	movaps	%xmm2, -2864(%rbp)
	salq	$4, %r12
	leaq	(%rbx,%rax,8), %rbx
	call	__popcountdi2@PLT
	movdqa	-2704(%rbp), %xmm3
	movslq	%eax, %r8
	movq	-2728(%rbp), %rax
	movaps	%xmm3, -160(%rbp)
	movdqa	(%rax,%r12), %xmm0
	movaps	%xmm0, -1056(%rbp)
	movzbl	-1048(%rbp), %edx
	movd	%xmm0, %r9d
	movaps	%xmm0, -1072(%rbp)
	andl	$15, %r9d
	movq	%rdx, %rcx
	movzbl	-1063(%rbp), %edx
	movaps	%xmm0, -1088(%rbp)
	movaps	%xmm0, -944(%rbp)
	movzbl	-943(%rbp), %eax
	andl	$15, %ecx
	movq	%rdx, %rdi
	movzbl	-1078(%rbp), %edx
	movaps	%xmm0, -1104(%rbp)
	andl	$15, %eax
	andl	$15, %edi
	movaps	%xmm0, -1040(%rbp)
	andl	$15, %edx
	movq	%rax, -2704(%rbp)
	movzbl	-1033(%rbp), %eax
	movq	%rdx, -2832(%rbp)
	movzbl	-1093(%rbp), %edx
	movq	%rdi, -2656(%rbp)
	andl	$15, %eax
	movaps	%xmm0, -1024(%rbp)
	movq	%rdx, %rdi
	movzbl	-1018(%rbp), %r14d
	andl	$15, %edi
	movq	%rcx, -2720(%rbp)
	movaps	%xmm0, -960(%rbp)
	andl	$15, %r14d
	movzbl	-958(%rbp), %r10d
	movaps	%xmm0, -976(%rbp)
	movzbl	-973(%rbp), %r11d
	movaps	%xmm0, -992(%rbp)
	movzbl	-988(%rbp), %r12d
	andl	$15, %r10d
	movaps	%xmm0, -1008(%rbp)
	movzbl	-1003(%rbp), %r13d
	andl	$15, %r11d
	movq	%rdi, -2848(%rbp)
	andl	$15, %r12d
	movaps	%xmm0, -1120(%rbp)
	andl	$15, %r13d
	movzbl	-1108(%rbp), %edx
	movaps	%xmm0, -1136(%rbp)
	movzbl	-1123(%rbp), %ecx
	movaps	%xmm0, -1152(%rbp)
	movzbl	-1138(%rbp), %esi
	andl	$15, %edx
	movaps	%xmm0, -1168(%rbp)
	movzbl	-160(%rbp,%rax), %eax
	movzbl	-160(%rbp,%r14), %r14d
	andl	$15, %ecx
	movzbl	-160(%rbp,%r13), %r13d
	movzbl	-1153(%rbp), %edi
	andl	$15, %esi
	salq	$8, %rax
	movzbl	-160(%rbp,%r12), %r12d
	movzbl	-160(%rbp,%r11), %r11d
	orq	%r14, %rax
	andl	$15, %edi
	movzbl	-160(%rbp,%r10), %r10d
	movzbl	-160(%rbp,%rsi), %esi
	salq	$8, %rax
	movzbl	-160(%rbp,%rdi), %edi
	movzbl	-160(%rbp,%rcx), %ecx
	orq	%r13, %rax
	movzbl	-160(%rbp,%rdx), %edx
	movzbl	-160(%rbp,%r9), %r9d
	salq	$8, %rax
	salq	$8, %rdi
	orq	%r12, %rax
	salq	$8, %rax
	orq	%r11, %rax
	movq	-2704(%rbp), %r11
	salq	$8, %rax
	orq	%r10, %rax
	movzbl	-160(%rbp,%r11), %r10d
	movq	-2848(%rbp), %r11
	salq	$8, %rax
	orq	%r10, %rax
	salq	$8, %rax
	orq	%rsi, %rdi
	movq	-2656(%rbp), %rsi
	salq	$8, %rdi
	orq	%r9, %rax
	orq	%rcx, %rdi
	movq	-2720(%rbp), %rcx
	movq	%rax, -2704(%rbp)
	salq	$8, %rdi
	orq	%rdx, %rdi
	movzbl	-160(%rbp,%r11), %edx
	salq	$8, %rdi
	orq	%rdx, %rdi
	movq	-2832(%rbp), %rdx
	salq	$8, %rdi
	movzbl	-160(%rbp,%rdx), %edx
	orq	%rdx, %rdi
	movzbl	-160(%rbp,%rsi), %edx
	salq	$8, %rdi
	orq	%rdx, %rdi
	movzbl	-160(%rbp,%rcx), %edx
	salq	$8, %rdi
	orq	%rdx, %rdi
	movq	%rdi, -2696(%rbp)
	movq	-2640(%rbp), %rax
	movdqa	-2704(%rbp), %xmm6
	movdqa	-2864(%rbp), %xmm2
	movups	%xmm6, (%r15,%rax,8)
	addq	%r8, %rax
	cmpq	$5, -2688(%rbp)
	movq	%rax, -2640(%rbp)
	jbe	.L435
	movq	-2648(%rbp), %rcx
	movdqa	-2624(%rbp), %xmm6
	movdqa	%xmm2, %xmm1
	movaps	%xmm2, -2880(%rbp)
	movdqu	32(%rcx), %xmm3
	movdqa	%xmm6, %xmm0
	pcmpeqd	%xmm3, %xmm0
	psubq	%xmm3, %xmm1
	movaps	%xmm3, -2704(%rbp)
	pand	%xmm0, %xmm1
	movdqa	%xmm3, %xmm0
	pcmpgtd	%xmm6, %xmm0
	por	%xmm0, %xmm1
	pcmpeqd	%xmm0, %xmm0
	pshufd	$245, %xmm1, %xmm1
	pxor	%xmm1, %xmm0
	movaps	%xmm1, -2864(%rbp)
	movmskpd	%xmm0, %r12d
	movq	%r12, %rdi
	salq	$4, %r12
	call	__popcountdi2@PLT
	movdqa	-2704(%rbp), %xmm3
	movslq	%eax, %rcx
	movq	-2728(%rbp), %rax
	movq	%rcx, -2720(%rbp)
	movdqa	(%rax,%r12), %xmm0
	movaps	%xmm3, -144(%rbp)
	movaps	%xmm0, -1184(%rbp)
	movzbl	-1183(%rbp), %eax
	movd	%xmm0, %r10d
	movaps	%xmm0, -1200(%rbp)
	andl	$15, %r10d
	andl	$15, %eax
	movaps	%xmm0, -1296(%rbp)
	movzbl	-1288(%rbp), %edx
	movq	%rax, -2704(%rbp)
	movzbl	-1198(%rbp), %eax
	movaps	%xmm0, -1280(%rbp)
	movq	%rdx, %rdi
	movaps	%xmm0, -1312(%rbp)
	movq	%rax, %rsi
	movzbl	-1303(%rbp), %edx
	andl	$15, %edi
	movzbl	-1273(%rbp), %eax
	movaps	%xmm0, -1264(%rbp)
	movzbl	-1258(%rbp), %r14d
	andl	$15, %esi
	andl	$15, %edx
	movaps	%xmm0, -1216(%rbp)
	movzbl	-1213(%rbp), %r11d
	andl	$15, %eax
	movaps	%xmm0, -1232(%rbp)
	andl	$15, %r14d
	movzbl	-1228(%rbp), %r12d
	movaps	%xmm0, -1248(%rbp)
	movzbl	-1243(%rbp), %r13d
	andl	$15, %r11d
	movq	%rsi, -2656(%rbp)
	andl	$15, %r12d
	movq	%rdi, -2832(%rbp)
	andl	$15, %r13d
	movaps	%xmm0, -1328(%rbp)
	movq	%rdx, -2848(%rbp)
	movzbl	-1318(%rbp), %edx
	movaps	%xmm0, -1344(%rbp)
	movzbl	-1333(%rbp), %ecx
	movaps	%xmm0, -1360(%rbp)
	movzbl	-1348(%rbp), %esi
	andl	$15, %edx
	movaps	%xmm0, -1376(%rbp)
	movzbl	-1363(%rbp), %edi
	andl	$15, %ecx
	movaps	%xmm0, -1392(%rbp)
	movzbl	-1378(%rbp), %r8d
	andl	$15, %esi
	movaps	%xmm0, -1408(%rbp)
	movzbl	-144(%rbp,%rax), %eax
	movzbl	-144(%rbp,%r14), %r14d
	andl	$15, %edi
	movzbl	-144(%rbp,%r13), %r13d
	movzbl	-1393(%rbp), %r9d
	andl	$15, %r8d
	salq	$8, %rax
	movzbl	-144(%rbp,%r12), %r12d
	movzbl	-144(%rbp,%r11), %r11d
	orq	%r14, %rax
	movq	-2656(%rbp), %r14
	andl	$15, %r9d
	movzbl	-144(%rbp,%r8), %r8d
	salq	$8, %rax
	movzbl	-144(%rbp,%rdi), %edi
	movzbl	-144(%rbp,%r9), %r9d
	orq	%r13, %rax
	movzbl	-144(%rbp,%rsi), %esi
	movzbl	-144(%rbp,%rcx), %ecx
	salq	$8, %rax
	salq	$8, %r9
	movzbl	-144(%rbp,%rdx), %edx
	movzbl	-144(%rbp,%r10), %r10d
	orq	%r12, %rax
	salq	$8, %rax
	orq	%r11, %rax
	movzbl	-144(%rbp,%r14), %r11d
	salq	$8, %rax
	orq	%r11, %rax
	movq	-2704(%rbp), %r11
	salq	$8, %rax
	movzbl	-144(%rbp,%r11), %r11d
	orq	%r11, %rax
	salq	$8, %rax
	orq	%r8, %r9
	salq	$8, %r9
	orq	%r10, %rax
	orq	%rdi, %r9
	movq	-2832(%rbp), %rdi
	salq	$8, %r9
	orq	%rsi, %r9
	salq	$8, %r9
	orq	%rcx, %r9
	salq	$8, %r9
	orq	%rdx, %r9
	movq	-2848(%rbp), %rdx
	salq	$8, %r9
	movzbl	-144(%rbp,%rdx), %edx
	orq	%rdx, %r9
	movzbl	-144(%rbp,%rdi), %edx
	movq	%rax, -2704(%rbp)
	movdqa	-2752(%rbp), %xmm6
	movdqa	-2784(%rbp), %xmm0
	salq	$8, %r9
	movq	-2720(%rbp), %xmm4
	orq	%rdx, %r9
	movdqa	-2864(%rbp), %xmm1
	movdqa	%xmm6, %xmm5
	movq	%r9, -2696(%rbp)
	movdqa	-2880(%rbp), %xmm2
	punpcklqdq	%xmm4, %xmm4
	pcmpeqd	%xmm4, %xmm5
	psubq	%xmm4, %xmm0
	pcmpgtd	%xmm6, %xmm4
	pand	%xmm5, %xmm0
	por	%xmm4, %xmm0
	pshufd	$245, %xmm0, %xmm0
	movq	%xmm0, %rax
	testq	%rax, %rax
	je	.L438
	movdqa	-2704(%rbp), %xmm6
	movq	%xmm6, (%rbx)
.L438:
	movhlps	%xmm0, %xmm6
	movq	%xmm6, %rax
	testq	%rax, %rax
	je	.L439
	movdqa	-2704(%rbp), %xmm6
	movhps	%xmm6, 8(%rbx)
.L439:
	movq	-2720(%rbp), %rax
	movmskpd	%xmm1, %r12d
	movaps	%xmm3, -2704(%rbp)
	movq	%r12, %rdi
	movaps	%xmm2, -2864(%rbp)
	salq	$4, %r12
	leaq	(%rbx,%rax,8), %rbx
	call	__popcountdi2@PLT
	movdqa	-2704(%rbp), %xmm3
	movslq	%eax, %r8
	movq	-2728(%rbp), %rax
	movaps	%xmm3, -128(%rbp)
	movdqa	(%rax,%r12), %xmm0
	movaps	%xmm0, -1424(%rbp)
	movzbl	-1423(%rbp), %eax
	movd	%xmm0, %ecx
	movaps	%xmm0, -1440(%rbp)
	andl	$15, %ecx
	andl	$15, %eax
	movaps	%xmm0, -1536(%rbp)
	movzbl	-1528(%rbp), %edx
	movq	%rax, -2720(%rbp)
	movzbl	-1438(%rbp), %eax
	movaps	%xmm0, -1520(%rbp)
	movq	%rdx, %rdi
	movq	%rax, %rsi
	movaps	%xmm0, -1552(%rbp)
	movzbl	-1513(%rbp), %eax
	andl	$15, %edi
	movzbl	-1543(%rbp), %edx
	movaps	%xmm0, -1504(%rbp)
	movzbl	-1498(%rbp), %r14d
	andl	$15, %esi
	andl	$15, %eax
	movq	%rsi, -2656(%rbp)
	andl	$15, %edx
	movq	%rdi, -2832(%rbp)
	andl	$15, %r14d
	movq	%rdx, -2848(%rbp)
	movaps	%xmm0, -1456(%rbp)
	movzbl	-1453(%rbp), %r11d
	movaps	%xmm0, -1472(%rbp)
	movzbl	-1468(%rbp), %r12d
	movaps	%xmm0, -1488(%rbp)
	movzbl	-1483(%rbp), %r13d
	andl	$15, %r11d
	movaps	%xmm0, -1568(%rbp)
	movzbl	-1558(%rbp), %edx
	andl	$15, %r12d
	movq	%rcx, -2704(%rbp)
	andl	$15, %r13d
	movaps	%xmm0, -1584(%rbp)
	movzbl	-1573(%rbp), %ecx
	andl	$15, %edx
	movaps	%xmm0, -1600(%rbp)
	movzbl	-1588(%rbp), %esi
	movaps	%xmm0, -1616(%rbp)
	movzbl	-1603(%rbp), %edi
	andl	$15, %ecx
	movaps	%xmm0, -1632(%rbp)
	movzbl	-1618(%rbp), %r9d
	andl	$15, %esi
	movaps	%xmm0, -1648(%rbp)
	movzbl	-128(%rbp,%rax), %eax
	andl	$15, %edi
	movzbl	-128(%rbp,%r14), %r14d
	movzbl	-128(%rbp,%r13), %r13d
	movzbl	-128(%rbp,%r12), %r12d
	andl	$15, %r9d
	salq	$8, %rax
	movzbl	-128(%rbp,%rdi), %edi
	movzbl	-128(%rbp,%rsi), %esi
	orq	%r14, %rax
	movzbl	-128(%rbp,%r11), %r11d
	movzbl	-1633(%rbp), %r10d
	salq	$8, %rax
	movzbl	-128(%rbp,%r9), %r9d
	movzbl	-128(%rbp,%rcx), %ecx
	orq	%r13, %rax
	movq	-2720(%rbp), %r14
	andl	$15, %r10d
	movzbl	-128(%rbp,%rdx), %edx
	salq	$8, %rax
	movzbl	-128(%rbp,%r10), %r10d
	orq	%r12, %rax
	movq	-2656(%rbp), %r12
	salq	$8, %rax
	salq	$8, %r10
	orq	%r11, %rax
	movzbl	-128(%rbp,%r12), %r11d
	salq	$8, %rax
	orq	%r11, %rax
	movzbl	-128(%rbp,%r14), %r11d
	salq	$8, %rax
	orq	%r11, %rax
	movq	-2704(%rbp), %r11
	salq	$8, %rax
	orq	%r9, %r10
	salq	$8, %r10
	movzbl	-128(%rbp,%r11), %r11d
	orq	%rdi, %r10
	movq	-2832(%rbp), %rdi
	salq	$8, %r10
	orq	%r11, %rax
	orq	%rsi, %r10
	movq	%rax, -2704(%rbp)
	salq	$8, %r10
	orq	%rcx, %r10
	salq	$8, %r10
	orq	%rdx, %r10
	movq	-2848(%rbp), %rdx
	salq	$8, %r10
	movzbl	-128(%rbp,%rdx), %edx
	orq	%rdx, %r10
	movzbl	-128(%rbp,%rdi), %edx
	salq	$8, %r10
	orq	%rdx, %r10
	movq	%r10, -2696(%rbp)
	movq	-2640(%rbp), %rax
	movdqa	-2704(%rbp), %xmm6
	movdqa	-2864(%rbp), %xmm2
	movups	%xmm6, (%r15,%rax,8)
	addq	%r8, %rax
	movq	%rax, -2640(%rbp)
.L435:
	movq	-2688(%rbp), %rcx
	leaq	-2(%rcx), %rax
	leaq	1(%rcx), %rdx
	movq	-2640(%rbp), %rcx
	andq	$-2, %rax
	addq	$2, %rax
	cmpq	$2, %rdx
	movl	$2, %edx
	cmovbe	%rdx, %rax
	leaq	0(,%rcx,8), %r13
.L432:
	movq	-2688(%rbp), %rcx
	cmpq	%rax, %rcx
	je	.L440
	movdqa	-2752(%rbp), %xmm7
	subq	%rax, %rcx
	movdqa	%xmm2, %xmm6
	movdqa	-2784(%rbp), %xmm1
	movq	%rcx, %xmm0
	movq	-2648(%rbp), %rcx
	movaps	%xmm2, -2896(%rbp)
	punpcklqdq	%xmm0, %xmm0
	movdqa	%xmm7, %xmm3
	pcmpeqd	%xmm0, %xmm3
	movdqu	(%rcx,%rax,8), %xmm5
	psubq	%xmm0, %xmm1
	pcmpgtd	%xmm7, %xmm0
	psubq	%xmm5, %xmm6
	movaps	%xmm5, -2688(%rbp)
	pand	%xmm3, %xmm1
	por	%xmm1, %xmm0
	movdqa	%xmm6, %xmm1
	movdqa	-2624(%rbp), %xmm6
	pshufd	$245, %xmm0, %xmm4
	movdqa	%xmm6, %xmm3
	movaps	%xmm4, -2864(%rbp)
	pcmpeqd	%xmm5, %xmm3
	pand	%xmm3, %xmm1
	movdqa	%xmm5, %xmm3
	pcmpgtd	%xmm6, %xmm3
	por	%xmm3, %xmm1
	pshufd	$245, %xmm1, %xmm1
	movdqa	%xmm1, %xmm6
	movaps	%xmm1, -2880(%rbp)
	pandn	%xmm4, %xmm6
	movmskpd	%xmm6, %r12d
	movq	%r12, %rdi
	salq	$4, %r12
	call	__popcountdi2@PLT
	movq	-2728(%rbp), %rcx
	movdqa	-2688(%rbp), %xmm5
	cltq
	movdqa	(%rcx,%r12), %xmm0
	movq	%rax, -2704(%rbp)
	movaps	%xmm5, -112(%rbp)
	movaps	%xmm0, -1664(%rbp)
	movzbl	-1663(%rbp), %eax
	movd	%xmm0, %ecx
	movaps	%xmm0, -1680(%rbp)
	andl	$15, %ecx
	movq	%rax, %rdi
	movzbl	-1678(%rbp), %eax
	movaps	%xmm0, -1760(%rbp)
	movaps	%xmm0, -1776(%rbp)
	movzbl	-1768(%rbp), %edx
	andl	$15, %edi
	movq	%rax, %rsi
	movzbl	-1753(%rbp), %eax
	movaps	%xmm0, -1744(%rbp)
	movzbl	-1738(%rbp), %r14d
	andl	$15, %esi
	andl	$15, %edx
	movaps	%xmm0, -1696(%rbp)
	movzbl	-1693(%rbp), %r10d
	andl	$15, %eax
	movaps	%xmm0, -1712(%rbp)
	andl	$15, %r14d
	movzbl	-1708(%rbp), %r11d
	movaps	%xmm0, -1728(%rbp)
	movzbl	-1723(%rbp), %r12d
	andl	$15, %r10d
	movq	%rcx, -2688(%rbp)
	andl	$15, %r11d
	movq	%rdi, -2720(%rbp)
	andl	$15, %r12d
	movq	%rsi, -2656(%rbp)
	movaps	%xmm0, -1792(%rbp)
	movq	%rdx, -2832(%rbp)
	movzbl	-1783(%rbp), %edx
	movaps	%xmm0, -1808(%rbp)
	movaps	%xmm0, -1824(%rbp)
	movq	%rdx, %r8
	movzbl	-1813(%rbp), %ecx
	movzbl	-1798(%rbp), %edx
	movaps	%xmm0, -1840(%rbp)
	andl	$15, %r8d
	movzbl	-1828(%rbp), %esi
	movaps	%xmm0, -1856(%rbp)
	andl	$15, %edx
	andl	$15, %ecx
	movzbl	-1843(%rbp), %edi
	movaps	%xmm0, -1872(%rbp)
	andl	$15, %esi
	movaps	%xmm0, -1888(%rbp)
	movzbl	-112(%rbp,%rax), %eax
	movzbl	-112(%rbp,%r14), %r14d
	andl	$15, %edi
	movzbl	-112(%rbp,%r12), %r12d
	movzbl	-112(%rbp,%r11), %r11d
	movq	%r8, -2848(%rbp)
	salq	$8, %rax
	movzbl	-112(%rbp,%r10), %r10d
	movzbl	-1873(%rbp), %r9d
	orq	%r14, %rax
	movzbl	-112(%rbp,%rdi), %edi
	movzbl	-112(%rbp,%rsi), %esi
	salq	$8, %rax
	movq	-2720(%rbp), %r14
	andl	$15, %r9d
	movzbl	-1858(%rbp), %r8d
	orq	%r12, %rax
	movzbl	-112(%rbp,%r9), %r9d
	movzbl	-112(%rbp,%rcx), %ecx
	salq	$8, %rax
	andl	$15, %r8d
	movzbl	-112(%rbp,%rdx), %edx
	orq	%r11, %rax
	movzbl	-112(%rbp,%r8), %r8d
	movq	-2688(%rbp), %r11
	salq	$8, %rax
	orq	%r10, %rax
	movq	-2656(%rbp), %r10
	salq	$8, %rax
	movzbl	-112(%rbp,%r10), %r10d
	orq	%r10, %rax
	movzbl	-112(%rbp,%r14), %r10d
	salq	$8, %rax
	orq	%r10, %rax
	movzbl	-112(%rbp,%r11), %r10d
	salq	$8, %rax
	salq	$8, %r9
	orq	%r8, %r9
	movq	-2848(%rbp), %r8
	orq	%r10, %rax
	salq	$8, %r9
	orq	%rdi, %r9
	salq	$8, %r9
	orq	%rsi, %r9
	salq	$8, %r9
	orq	%rcx, %r9
	salq	$8, %r9
	orq	%rdx, %r9
	movzbl	-112(%rbp,%r8), %edx
	movq	%rax, -2688(%rbp)
	movdqa	-2752(%rbp), %xmm7
	movdqa	-2784(%rbp), %xmm0
	salq	$8, %r9
	movq	-2704(%rbp), %xmm3
	orq	%rdx, %r9
	movq	-2832(%rbp), %rdx
	movdqa	%xmm7, %xmm6
	salq	$8, %r9
	movdqa	-2864(%rbp), %xmm4
	movdqa	-2880(%rbp), %xmm1
	punpcklqdq	%xmm3, %xmm3
	movzbl	-112(%rbp,%rdx), %edx
	movdqa	-2896(%rbp), %xmm2
	pcmpeqd	%xmm3, %xmm6
	psubq	%xmm3, %xmm0
	pcmpgtd	%xmm7, %xmm3
	orq	%rdx, %r9
	movq	%r9, -2680(%rbp)
	pand	%xmm6, %xmm0
	por	%xmm3, %xmm0
	pshufd	$245, %xmm0, %xmm0
	movq	%xmm0, %rax
	testq	%rax, %rax
	je	.L441
	movdqa	-2688(%rbp), %xmm6
	movq	%xmm6, (%rbx)
.L441:
	movhlps	%xmm0, %xmm6
	movq	%xmm6, %rax
	testq	%rax, %rax
	je	.L442
	movdqa	-2688(%rbp), %xmm6
	movhps	%xmm6, 8(%rbx)
.L442:
	pand	%xmm4, %xmm1
	movq	-2704(%rbp), %rax
	movaps	%xmm5, -2688(%rbp)
	movmskpd	%xmm1, %r12d
	movaps	%xmm2, -2864(%rbp)
	movq	%r12, %rdi
	leaq	(%rbx,%rax,8), %rbx
	salq	$4, %r12
	call	__popcountdi2@PLT
	movq	-2728(%rbp), %rcx
	movdqa	-2688(%rbp), %xmm5
	movl	%eax, -2848(%rbp)
	movdqa	(%rcx,%r12), %xmm0
	movaps	%xmm5, -96(%rbp)
	movaps	%xmm0, -1904(%rbp)
	movzbl	-1903(%rbp), %eax
	movd	%xmm0, %ecx
	movaps	%xmm0, -2016(%rbp)
	movzbl	-2008(%rbp), %edx
	andl	$15, %ecx
	movq	%rax, %rdi
	movaps	%xmm0, -1920(%rbp)
	movzbl	-1918(%rbp), %eax
	andl	$15, %edx
	movaps	%xmm0, -2032(%rbp)
	andl	$15, %edi
	movq	%rdx, -2656(%rbp)
	movzbl	-2023(%rbp), %edx
	movq	%rax, %rsi
	movaps	%xmm0, -2000(%rbp)
	movzbl	-1993(%rbp), %eax
	andl	$15, %esi
	movaps	%xmm0, -1984(%rbp)
	movq	%rdx, %r8
	movzbl	-1978(%rbp), %r14d
	andl	$15, %r8d
	andl	$15, %eax
	movq	%rcx, -2688(%rbp)
	movq	%rdi, -2704(%rbp)
	andl	$15, %r14d
	movq	%rsi, -2720(%rbp)
	movq	%r8, -2832(%rbp)
	movaps	%xmm0, -1936(%rbp)
	movzbl	-1933(%rbp), %r10d
	movaps	%xmm0, -1952(%rbp)
	movzbl	-1948(%rbp), %r11d
	movaps	%xmm0, -1968(%rbp)
	movzbl	-1963(%rbp), %r12d
	andl	$15, %r10d
	movaps	%xmm0, -2048(%rbp)
	movzbl	-2038(%rbp), %edx
	andl	$15, %r11d
	movaps	%xmm0, -2064(%rbp)
	andl	$15, %r12d
	movzbl	-2053(%rbp), %ecx
	movaps	%xmm0, -2080(%rbp)
	movzbl	-2068(%rbp), %esi
	andl	$15, %edx
	movaps	%xmm0, -2096(%rbp)
	movzbl	-2083(%rbp), %edi
	andl	$15, %ecx
	movaps	%xmm0, -2112(%rbp)
	movzbl	-2098(%rbp), %r8d
	andl	$15, %esi
	movaps	%xmm0, -2128(%rbp)
	movzbl	-96(%rbp,%rax), %eax
	andl	$15, %edi
	movzbl	-96(%rbp,%r14), %r14d
	movzbl	-96(%rbp,%r12), %r12d
	movzbl	-96(%rbp,%r11), %r11d
	andl	$15, %r8d
	salq	$8, %rax
	movzbl	-96(%rbp,%rdi), %edi
	movzbl	-96(%rbp,%rsi), %esi
	orq	%r14, %rax
	movzbl	-96(%rbp,%r10), %r10d
	movzbl	-2113(%rbp), %r9d
	salq	$8, %rax
	movzbl	-96(%rbp,%r8), %r8d
	movzbl	-96(%rbp,%rcx), %ecx
	orq	%r12, %rax
	movq	-2704(%rbp), %r14
	andl	$15, %r9d
	movzbl	-96(%rbp,%rdx), %edx
	salq	$8, %rax
	movzbl	-96(%rbp,%r9), %r9d
	orq	%r11, %rax
	movq	-2688(%rbp), %r11
	salq	$8, %rax
	salq	$8, %r9
	orq	%r10, %rax
	movq	-2720(%rbp), %r10
	salq	$8, %rax
	movzbl	-96(%rbp,%r10), %r10d
	orq	%r10, %rax
	movzbl	-96(%rbp,%r14), %r10d
	salq	$8, %rax
	orq	%r10, %rax
	movzbl	-96(%rbp,%r11), %r10d
	salq	$8, %rax
	orq	%r8, %r9
	movq	-2832(%rbp), %r8
	salq	$8, %r9
	orq	%r10, %rax
	orq	%rdi, %r9
	movq	%rax, -2688(%rbp)
	salq	$8, %r9
	orq	%rsi, %r9
	salq	$8, %r9
	orq	%rcx, %r9
	salq	$8, %r9
	orq	%rdx, %r9
	movzbl	-96(%rbp,%r8), %edx
	salq	$8, %r9
	orq	%rdx, %r9
	movq	-2656(%rbp), %rdx
	salq	$8, %r9
	movzbl	-96(%rbp,%rdx), %edx
	orq	%rdx, %r9
	movq	%r9, -2680(%rbp)
	movdqa	-2688(%rbp), %xmm6
	movslq	-2848(%rbp), %rax
	addq	%rax, -2640(%rbp)
	movq	-2640(%rbp), %rcx
	movdqa	-2864(%rbp), %xmm2
	movups	%xmm6, (%r15,%r13)
	leaq	0(,%rcx,8), %r13
.L440:
	movq	-2648(%rbp), %rax
	movq	-2672(%rbp), %r12
	subq	-2640(%rbp), %r12
	leaq	(%rax,%r12,8), %rax
	cmpl	$8, %r13d
	jnb	.L443
	testl	%r13d, %r13d
	jne	.L597
.L444:
	cmpl	$8, %r13d
	jnb	.L447
.L601:
	testl	%r13d, %r13d
	jne	.L598
.L448:
	movq	-2672(%rbp), %rcx
	movq	%rbx, %rax
	subq	-2648(%rbp), %rax
	sarq	$3, %rax
	subq	%rax, %rcx
	subq	%rax, %r12
	movq	%rax, -2848(%rbp)
	movq	%rcx, -2832(%rbp)
	leaq	(%rbx,%r12,8), %rax
	je	.L493
	movdqu	(%rbx), %xmm6
	leaq	64(%rbx), %rdx
	leaq	-64(%rax), %rcx
	movaps	%xmm6, -2864(%rbp)
	movdqu	16(%rbx), %xmm6
	movaps	%xmm6, -2880(%rbp)
	movdqu	32(%rbx), %xmm6
	movaps	%xmm6, -2896(%rbp)
	movdqu	48(%rbx), %xmm6
	movaps	%xmm6, -2912(%rbp)
	movdqu	-64(%rax), %xmm6
	movaps	%xmm6, -2928(%rbp)
	movdqu	-48(%rax), %xmm6
	movaps	%xmm6, -2944(%rbp)
	movdqu	-32(%rax), %xmm6
	movaps	%xmm6, -2960(%rbp)
	movdqu	-16(%rax), %xmm6
	movaps	%xmm6, -2976(%rbp)
	cmpq	%rcx, %rdx
	je	.L494
	movq	%r15, -2984(%rbp)
	xorl	%r13d, %r13d
	movl	$2, %r14d
	movq	%rcx, %r15
	movaps	%xmm2, -2640(%rbp)
	jmp	.L455
	.p2align 4,,10
	.p2align 3
.L600:
	movdqu	-64(%r15), %xmm5
	movdqu	-48(%r15), %xmm4
	prefetcht0	-256(%r15)
	subq	$64, %r15
	movdqu	32(%r15), %xmm3
	movdqu	48(%r15), %xmm1
.L454:
	movdqa	-2624(%rbp), %xmm7
	movdqa	-2640(%rbp), %xmm0
	movq	%rdx, -2656(%rbp)
	movaps	%xmm1, -2720(%rbp)
	movdqa	%xmm7, %xmm2
	psubq	%xmm5, %xmm0
	movaps	%xmm3, -2704(%rbp)
	pcmpeqd	%xmm5, %xmm2
	movaps	%xmm4, -2688(%rbp)
	pand	%xmm2, %xmm0
	movdqa	%xmm5, %xmm2
	pcmpgtd	%xmm7, %xmm2
	pshufd	$78, %xmm5, %xmm7
	por	%xmm2, %xmm0
	pshufd	$245, %xmm0, %xmm0
	movdqa	%xmm0, %xmm6
	movdqa	%xmm0, %xmm2
	movmskpd	%xmm0, %edi
	punpcklqdq	%xmm0, %xmm6
	punpckhqdq	%xmm0, %xmm2
	pandn	%xmm6, %xmm2
	movdqa	%xmm2, %xmm6
	pand	%xmm7, %xmm2
	pandn	%xmm5, %xmm6
	por	%xmm6, %xmm2
	movaps	%xmm2, -2672(%rbp)
	call	__popcountdi2@PLT
	movdqa	-2672(%rbp), %xmm2
	leaq	-2(%r12,%r13), %rsi
	movdqa	-2624(%rbp), %xmm7
	movdqa	-2688(%rbp), %xmm4
	movdqa	-2640(%rbp), %xmm0
	cltq
	movups	%xmm2, (%rbx,%r13,8)
	addq	$2, %r13
	movups	%xmm2, (%rbx,%rsi,8)
	movdqa	%xmm7, %xmm2
	psubq	%xmm4, %xmm0
	subq	%rax, %r13
	pcmpeqd	%xmm4, %xmm2
	pshufd	$78, %xmm4, %xmm6
	pand	%xmm2, %xmm0
	movdqa	%xmm4, %xmm2
	pcmpgtd	%xmm7, %xmm2
	por	%xmm2, %xmm0
	pshufd	$245, %xmm0, %xmm0
	movdqa	%xmm0, %xmm5
	movdqa	%xmm0, %xmm2
	movmskpd	%xmm0, %edi
	punpcklqdq	%xmm0, %xmm5
	punpckhqdq	%xmm0, %xmm2
	pandn	%xmm5, %xmm2
	movdqa	%xmm2, %xmm5
	pand	%xmm6, %xmm2
	pandn	%xmm4, %xmm5
	por	%xmm5, %xmm2
	movaps	%xmm2, -2672(%rbp)
	call	__popcountdi2@PLT
	movdqa	-2672(%rbp), %xmm2
	leaq	-4(%r12,%r13), %rsi
	movdqa	-2624(%rbp), %xmm7
	movdqa	-2704(%rbp), %xmm3
	movdqa	-2640(%rbp), %xmm0
	cltq
	movups	%xmm2, (%rbx,%r13,8)
	movups	%xmm2, (%rbx,%rsi,8)
	movdqa	%xmm7, %xmm2
	psubq	%xmm3, %xmm0
	movq	%r14, %rsi
	pcmpeqd	%xmm3, %xmm2
	pshufd	$78, %xmm3, %xmm5
	subq	%rax, %rsi
	addq	%rsi, %r13
	pand	%xmm2, %xmm0
	movdqa	%xmm3, %xmm2
	pcmpgtd	%xmm7, %xmm2
	por	%xmm2, %xmm0
	pshufd	$245, %xmm0, %xmm0
	movdqa	%xmm0, %xmm4
	movdqa	%xmm0, %xmm2
	movmskpd	%xmm0, %edi
	punpcklqdq	%xmm0, %xmm4
	punpckhqdq	%xmm0, %xmm2
	pandn	%xmm4, %xmm2
	movdqa	%xmm2, %xmm4
	pand	%xmm5, %xmm2
	pandn	%xmm3, %xmm4
	por	%xmm4, %xmm2
	movaps	%xmm2, -2672(%rbp)
	call	__popcountdi2@PLT
	movdqa	-2672(%rbp), %xmm2
	leaq	-6(%r12,%r13), %rdi
	movq	%r14, %rcx
	movdqa	-2624(%rbp), %xmm7
	movdqa	-2720(%rbp), %xmm1
	cltq
	subq	$8, %r12
	movups	%xmm2, (%rbx,%r13,8)
	movdqa	-2640(%rbp), %xmm0
	subq	%rax, %rcx
	movups	%xmm2, (%rbx,%rdi,8)
	movdqa	%xmm7, %xmm2
	pshufd	$78, %xmm1, %xmm4
	addq	%rcx, %r13
	pcmpeqd	%xmm1, %xmm2
	psubq	%xmm1, %xmm0
	pand	%xmm2, %xmm0
	movdqa	%xmm1, %xmm2
	pcmpgtd	%xmm7, %xmm2
	por	%xmm2, %xmm0
	pshufd	$245, %xmm0, %xmm0
	movdqa	%xmm0, %xmm3
	movdqa	%xmm0, %xmm2
	movmskpd	%xmm0, %edi
	punpcklqdq	%xmm0, %xmm3
	punpckhqdq	%xmm0, %xmm2
	pandn	%xmm3, %xmm2
	movdqa	%xmm2, %xmm3
	pandn	%xmm1, %xmm3
	movdqa	%xmm2, %xmm1
	pand	%xmm4, %xmm1
	por	%xmm3, %xmm1
	movaps	%xmm1, -2672(%rbp)
	call	__popcountdi2@PLT
	movdqa	-2672(%rbp), %xmm1
	leaq	0(%r13,%r12), %rsi
	movq	-2656(%rbp), %rdx
	cltq
	movups	%xmm1, (%rbx,%r13,8)
	movups	%xmm1, (%rbx,%rsi,8)
	movq	%r14, %rsi
	subq	%rax, %rsi
	addq	%rsi, %r13
	cmpq	%r15, %rdx
	je	.L599
.L455:
	movq	%rdx, %rax
	subq	%rbx, %rax
	sarq	$3, %rax
	subq	%r13, %rax
	cmpq	$8, %rax
	ja	.L600
	movdqu	(%rdx), %xmm5
	movdqu	16(%rdx), %xmm4
	prefetcht0	256(%rdx)
	addq	$64, %rdx
	movdqu	-32(%rdx), %xmm3
	movdqu	-16(%rdx), %xmm1
	jmp	.L454
	.p2align 4,,10
	.p2align 3
.L429:
	cmpq	$23, %rdx
	je	.L592
.L428:
	movq	%rdx, %rcx
	addq	$1, %rdx
	cmpq	%rax, (%r15,%rdx,8)
	je	.L429
	movl	$12, %edx
	subq	$11, %rcx
	subq	%rbx, %rdx
	cmpq	%rdx, %rcx
	jb	.L427
.L592:
	movq	(%r15,%rbx,8), %rax
	jmp	.L427
	.p2align 4,,10
	.p2align 3
.L595:
	movq	%rdx, %rbx
	movl	$8, %edx
	subq	%rax, %rdx
	leaq	-8(%rax,%rbx), %r11
	movq	%r8, %rax
	leaq	(%rdi,%rdx,8), %r13
	jmp	.L381
	.p2align 4,,10
	.p2align 3
.L599:
	movdqa	-2640(%rbp), %xmm2
	movq	-2984(%rbp), %r15
	leaq	(%rbx,%r13,8), %rdx
	leaq	(%r12,%r13), %r14
	addq	$2, %r13
.L452:
	movdqa	-2864(%rbp), %xmm7
	movdqa	-2624(%rbp), %xmm6
	movdqa	%xmm2, %xmm0
	movq	%rdx, -2688(%rbp)
	movaps	%xmm2, -2672(%rbp)
	movdqa	%xmm7, %xmm1
	psubq	%xmm7, %xmm0
	pshufd	$78, %xmm7, %xmm4
	pcmpeqd	%xmm6, %xmm1
	pand	%xmm1, %xmm0
	movdqa	%xmm7, %xmm1
	pcmpgtd	%xmm6, %xmm1
	por	%xmm1, %xmm0
	pshufd	$245, %xmm0, %xmm0
	movdqa	%xmm0, %xmm3
	movdqa	%xmm0, %xmm1
	movmskpd	%xmm0, %edi
	punpcklqdq	%xmm0, %xmm3
	punpckhqdq	%xmm0, %xmm1
	pandn	%xmm3, %xmm1
	movdqa	%xmm1, %xmm3
	pand	%xmm4, %xmm1
	pandn	%xmm7, %xmm3
	por	%xmm3, %xmm1
	movaps	%xmm1, -2640(%rbp)
	call	__popcountdi2@PLT
	movdqa	-2640(%rbp), %xmm1
	movdqa	-2880(%rbp), %xmm7
	movq	-2688(%rbp), %rdx
	movdqa	-2624(%rbp), %xmm6
	cltq
	movdqa	-2672(%rbp), %xmm2
	pshufd	$78, %xmm7, %xmm4
	subq	%rax, %r13
	movups	%xmm1, (%rdx)
	movups	%xmm1, -16(%rbx,%r14,8)
	movdqa	%xmm7, %xmm1
	movdqa	%xmm2, %xmm0
	pcmpeqd	%xmm6, %xmm1
	psubq	%xmm7, %xmm0
	pand	%xmm1, %xmm0
	movdqa	%xmm7, %xmm1
	pcmpgtd	%xmm6, %xmm1
	por	%xmm1, %xmm0
	pshufd	$245, %xmm0, %xmm0
	movdqa	%xmm0, %xmm3
	movdqa	%xmm0, %xmm1
	movmskpd	%xmm0, %edi
	punpcklqdq	%xmm0, %xmm3
	punpckhqdq	%xmm0, %xmm1
	pandn	%xmm3, %xmm1
	movdqa	%xmm1, %xmm3
	pand	%xmm4, %xmm1
	pandn	%xmm7, %xmm3
	por	%xmm3, %xmm1
	movaps	%xmm1, -2640(%rbp)
	call	__popcountdi2@PLT
	movdqa	-2640(%rbp), %xmm1
	leaq	-4(%r12,%r13), %rdx
	movdqa	-2896(%rbp), %xmm7
	movdqa	-2624(%rbp), %xmm6
	movdqa	-2672(%rbp), %xmm2
	cltq
	movups	%xmm1, (%rbx,%r13,8)
	pshufd	$78, %xmm7, %xmm4
	subq	%rax, %r13
	movups	%xmm1, (%rbx,%rdx,8)
	movdqa	%xmm7, %xmm1
	movdqa	%xmm2, %xmm0
	leaq	2(%r13), %r14
	pcmpeqd	%xmm6, %xmm1
	psubq	%xmm7, %xmm0
	movl	$2, %r13d
	pand	%xmm1, %xmm0
	movdqa	%xmm7, %xmm1
	pcmpgtd	%xmm6, %xmm1
	por	%xmm1, %xmm0
	pshufd	$245, %xmm0, %xmm0
	movdqa	%xmm0, %xmm3
	movdqa	%xmm0, %xmm1
	movmskpd	%xmm0, %edi
	punpcklqdq	%xmm0, %xmm3
	punpckhqdq	%xmm0, %xmm1
	pandn	%xmm3, %xmm1
	movdqa	%xmm1, %xmm3
	pand	%xmm4, %xmm1
	pandn	%xmm7, %xmm3
	por	%xmm3, %xmm1
	movaps	%xmm1, -2640(%rbp)
	call	__popcountdi2@PLT
	movdqa	-2912(%rbp), %xmm7
	leaq	-6(%r12,%r14), %rdx
	movdqa	-2640(%rbp), %xmm1
	movdqa	-2624(%rbp), %xmm6
	movdqa	-2672(%rbp), %xmm2
	cltq
	movups	%xmm1, (%rbx,%r14,8)
	pshufd	$78, %xmm7, %xmm4
